(dp0
(S'dt'
p1
S'n'
p2
tp3
F0.14464594127806563
s(S'b'
p4
S'.'
p5
tp6
F0.05504587155963303
s(S'wdt+hv'
p7
S'vb'
p8
tp9
F0.3333333333333333
s(S'rb+be'
p10
S'wp'
p11
tp12
F0.011627906976744186
s(S'pps+m'
p13
g2
tp14
F0.14123376623376624
s(S'a'
p15
S'cd'
p16
tp17
F0.0010551856751849253
s(S'vb+i'
p18
S''
p19
tp20
F0.3333333333333333
s(S'dt+be'
p21
S'bed'
p22
tp23
F0.007518796992481203
s(S'ppss+hv'
p24
g15
tp25
F0.07228915662650602
s(S'e'
p26
S'in'
p27
tp28
F0.000972951936174353
s(S'nr'
p29
S'rp'
p30
tp31
F0.00819672131147541
s(S'`'
p32
S'nns'
p33
tp34
F0.001234658902443519
s(g32
S'wq'
p35
tp36
F9.213872406294918e-05
s(S'bed'
p37
S'p'
p38
tp39
F0.0022471910112359553
s(S't'
p40
S'hv'
p41
tp42
F0.003957546321280806
s(S'j'
p43
g19
tp44
F0.08168255077091961
s(g38
S'hvz'
p45
tp46
F0.0002183406113537118
s(S'fw'
p47
g19
tp48
F0.1162280701754386
s(S'd'
p49
S'q'
p50
tp51
F0.00985859083767214
s(S'i'
p52
S"4''/n"
p53
tp54
F8.386306838194597e-06
s(S'wd'
p55
S'v'
p56
tp57
F0.038567969560705635
s(S'ppss+be'
p58
S'pp'
p59
tp60
F0.04695652173913043
s(S'dt'
p61
S'pp'
p62
tp63
F0.020149683362118594
s(S'bed'
p64
S'm'
p65
tp66
F0.0022471910112359553
s(S'h'
p67
g43
tp68
F0.04238921001926782
s(g4
S'in'
p69
tp70
F0.01834862385321101
s(S'cs'
p71
S'hv'
p72
tp73
F0.010526315789473684
s(S'c'
p74
g2
tp75
F0.15574651743794812
s(g32
g19
tp76
F0.09984152139461172
s(S'dod'
p77
g52
tp78
F0.0625
s(g32
g4
tp79
F0.004883352375336306
s(S'nr'
p80
S'be'
p81
tp82
F0.03278688524590164
s(S"'"
p83
g83
tp84
F0.014084507042253521
s(g24
g74
tp85
F0.08032128514056225
s(S'r'
p86
g38
tp87
F0.002528848514608397
s(S'rb'
p88
S'pps'
p89
tp90
F0.011987381703470032
s(S'ppss+be'
p91
S'pps+m'
p92
tp93
F0.0017391304347826088
s(S'nns'
p94
g5
tp95
F0.04781704781704782
s(g56
g19
tp96
F0.07685512367491167
s(S'wr'
p97
S'pps'
p98
tp99
F0.01921719776342218
s(g83
S'hv'
p100
tp101
F0.0035211267605633804
s(S'dod'
p102
S'ab'
p103
tp104
F0.020833333333333332
s(S'md'
p105
g43
tp106
F0.05063291139240506
s(S'do'
p107
S'vb'
p108
tp109
F0.036057692307692304
s(S'hv'
p110
S'vb'
p111
tp112
F0.08680792891319207
s(S'bedz'
p113
S'hv'
p114
tp115
F0.013513513513513514
s(g4
S'rb'
p116
tp117
F0.0022935779816513763
s(S'jj'
p118
S','
p119
tp120
F0.002994908655286014
s(g43
g56
tp121
F0.027743126590489497
s(S'ex'
p122
S'be'
p123
tp124
F0.1
s(S'('
p125
g2
tp126
F0.005813953488372093
s(S'pps+bez'
p127
S'nn'
p128
tp129
F0.3333333333333333
s(S'do*'
p130
S'rp'
p131
tp132
F0.0625
s(S'wq'
p133
g26
tp134
F0.0013297872340425532
s(g15
S'pps'
p135
tp136
F0.0039957792572992605
s(g56
S'do'
p137
tp138
F0.00136524253132027
s(g56
S"2''/n"
p139
tp140
F8.030838419531e-05
s(S'pps'
p141
S'np'
p142
tp143
F0.005254234130163403
s(S'do'
p144
g74
tp145
F0.046474358974358976
s(S'dt+be'
p146
S'wr'
p147
tp148
F0.03508771929824561
s(S'cs'
p149
S'cc'
p150
tp151
F0.010526315789473684
s(S'ppss+be'
p152
S'ppss+be'
p153
tp154
F0.0052173913043478265
s(g26
S'cs'
p155
tp156
F6.486346241162354e-05
s(S'vbn'
p157
S'nn'
p158
tp159
F0.16554054054054054
s(g61
g52
tp160
F0.11729994242947611
s(g49
S'wps+hv'
p161
tp162
F3.080809636772544e-05
s(g26
S'bedz'
p163
tp164
F0.0003891807744697412
s(g32
S'wps'
p165
tp166
F1.8427744812589837e-05
s(S'o'
p167
S'wr'
p168
tp169
F0.002742230347349177
s(g4
S'pps'
p170
tp171
F0.016055045871559634
s(S'do*'
p172
S'at'
p173
tp174
F0.125
s(S'pps+be'
p175
S'ppss+h'
p176
tp177
F0.0006341154090044388
s(g65
g67
tp178
F0.007194244604316547
s(S'ppss+m'
p179
g56
tp180
F0.10586319218241043
s(g52
S'ber'
p181
tp182
F1.6772613676389193e-05
s(S'ppss+m'
p183
S'ab'
p184
tp185
F0.003257328990228013
s(S'wr'
p186
S'chamber/vb'
p187
tp188
F5.428586938819825e-05
s(S'wp'
p189
S'nns'
p190
tp191
F0.0011534025374855825
s(S'ex+hv'
p192
S'be'
p193
tp194
F0.09090909090909091
s(g15
S'np'
p195
tp196
F0.008398635221776462
s(S'ex+be'
p197
g2
tp198
F0.16096579476861167
s(S'vb'
p199
S'in'
p200
tp201
F0.00220078666416932
s(g32
g52
tp202
F0.06418383518225039
s(S'bez'
p203
g19
tp204
F0.1276595744680851
s(g52
S'ql'
p205
tp206
F0.00014256721624930814
s(g86
g4
tp207
F0.006137981831573778
s(S'pn'
p208
S'do'
p209
tp210
F0.014705882352941176
s(S'ab'
p211
S'nr'
p212
tp213
F0.00016210082671421625
s(S'pps+be'
p214
g40
tp215
F0.019023462270133164
s(g50
S'vbn'
p216
tp217
F0.00047036688617121356
s(S'nr'
p218
g65
tp219
F0.00819672131147541
s(S'ppss+h'
p220
g49
tp221
F0.012711864406779662
s(S'wr'
p222
S'u'
p223
tp224
F0.0004885728244937843
s(S'bez'
p225
S'cc'
p226
tp227
F0.010638297872340425
s(S'vb+pp'
p228
S'nn'
p229
tp230
F0.03125
s(S'wd'
p231
g19
tp232
F0.08734002075406434
s(S'wp'
p233
g43
tp234
F0.04728950403690888
s(S'ppss+be'
p235
S'in'
p236
tp237
F0.0008695652173913044
s(S'ab'
p238
S'nn$'
p239
tp240
F0.000648403306856865
s(g2
S'pps+hv'
p241
tp242
F5.3993348019523996e-05
s(g77
g83
tp243
F0.041666666666666664
s(g2
S'nns'
p244
tp245
F0.002742862079391819
s(S'jj'
p246
S'np$'
p247
tp248
F0.0017969451931716084
s(S'wp'
p249
g40
tp250
F0.01845444059976932
s(g26
S'nrs'
p251
tp252
F6.486346241162354e-05
s(g83
g65
tp253
F0.01056338028169014
s(g40
S'ab'
p254
tp255
F0.0032379924446842958
s(S'rb'
p256
S'at'
p257
tp258
F0.004416403785488959
s(S'dt'
p259
S'ppl'
p260
tp261
F0.0008635578583765112
s(S'ab'
p262
g5
tp263
F0.051223861241692335
s(S'wd'
p264
S'jj'
p265
tp266
F0.0041508128675198895
s(S'dt'
p267
g56
tp268
F0.03655728267127231
s(S'nn$'
p269
g65
tp270
F0.004629629629629629
s(g55
S'do'
p271
tp272
F0.006399169837426496
s(S'pp'
p273
S'od'
p274
tp275
F0.0001854016363709645
s(g262
g86
tp276
F0.03436537526341384
s(g24
g52
tp277
F0.07630522088353414
s(g52
S'or/c'
p278
tp279
F2.5158920514583786e-05
s(g74
S'ex+be'
p280
tp281
F0.00010055148622831375
s(S'rb'
p282
g38
tp283
F0.0012618296529968455
s(S'ab'
p284
S'ppss+h'
p285
tp286
F0.00016210082671421625
s(g71
S'at'
p287
tp288
F0.05263157894736842
s(S'abn'
p289
S'jj'
p290
tp291
F0.09090909090909091
s(S'np$'
p292
g15
tp293
F0.06896551724137931
s(g40
S'in'
p294
tp295
F0.0016189962223421479
s(g15
S'at'
p296
tp297
F0.0008141534143558815
s(g50
S'vbg'
p298
tp299
F0.00031357792411414236
s(S'jj'
p300
g5
tp301
F0.05780173704702007
s(g32
S'pps'
p302
tp303
F0.0362473740463642
s(g52
S'wdt+bez'
p304
tp305
F8.386306838194597e-06
s(g83
g40
tp306
F0.009389671361502348
s(S'ql'
p307
g43
tp308
F0.08
s(S'pps+hv'
p309
S'jj'
p310
tp311
F0.003816793893129771
s(g86
S'ab'
p312
tp313
F0.0037318929535968574
s(S'pps+be'
p314
S'ab'
p315
tp316
F0.009511731135066582
s(S'nn'
p317
S'pps'
p318
tp319
F0.003896014342849262
s(g4
S'ab'
p320
tp321
F0.0022935779816513763
s(S'doz'
p322
g19
tp323
F0.2
s(S'np'
p324
S'cc'
p325
tp326
F0.00216076058772688
s(S'wrb'
p327
S'nn'
p328
tp329
F0.10135135135135136
s(S'nns'
p330
S'vb'
p331
tp332
F0.0446985446985447
s(g2
S'ab'
p333
tp334
F0.00296963414107382
s(S'ex+be'
p335
S'nn+be'
p336
tp337
F0.002012072434607646
s(S'nn$'
p338
S'jj'
p339
tp340
F0.018518518518518517
s(g262
g40
tp341
F0.012319662830280435
s(S'nn'
p342
S'vbz'
p343
tp344
F0.0006206040546131568
s(S'pps+hv'
p345
S'dod'
p346
tp347
F0.0019083969465648854
s(g309
S'pps'
p348
tp349
F0.011450381679389313
s(S'pps'
p350
S'dod'
p351
tp352
F0.0010992901194313502
s(g309
S'ab'
p353
tp354
F0.0057251908396946565
s(S'vb'
p355
S'to'
p356
tp357
F0.0002341262408690766
s(S'fw'
p358
S'ab'
p359
tp360
F0.0021929824561403508
s(g32
S'np'
p361
tp362
F0.0038882541554564553
s(S'md'
p363
g4
tp364
F0.006329113924050633
s(S'pp$'
p365
g15
tp366
F0.06172839506172839
s(g52
g74
tp367
F0.06168967310175945
s(S'pps'
p368
S'nn'
p369
tp370
F0.053753423636600774
s(S'wr'
p371
S'nns'
p372
tp373
F0.0020628630367515335
s(g52
S'ber*'
p374
tp375
F8.386306838194597e-06
s(g43
S'wd'
p376
tp377
F0.00449079387256125
s(S'pn+hv'
p378
g19
tp379
F0.14
s(S'rb'
p380
S'pn'
p381
tp382
F0.0006309148264984228
s(S'ex+be'
p383
g43
tp384
F0.026156941649899398
s(S'pp$'
p385
S'vb'
p386
tp387
F0.06172839506172839
s(S'ppss+m'
p388
S'hvd'
p389
tp390
F0.0008143322475570033
s(S'wrb+be'
p391
g19
tp392
F0.2
s(S'do'
p393
g4
tp394
F0.004006410256410256
s(S'pps+be'
p395
S'bed'
p396
tp397
F0.0031705770450221942
s(S'bedz'
p398
S'np'
p399
tp400
F0.013513513513513514
s(g43
g4
tp401
F0.007135372486402874
s(S'np'
p402
S'cd'
p403
tp404
F0.009075194468452896
s(S'wrb'
p405
g125
tp406
F0.006756756756756757
s(g38
S'jj'
p407
tp408
F0.0034934497816593887
s(S'be'
p409
S'nns'
p410
tp411
F0.0014705882352941176
s(S'dt'
p412
g50
tp413
F0.008347725964306276
s(S'pps+m'
p414
S'bedz'
p415
tp416
F0.0016233766233766235
s(g86
S'md'
p417
tp418
F0.000773385710778296
s(S'nn+bez'
p419
g83
tp420
F0.14285714285714285
s(g32
S'vb'
p421
tp422
F0.06739026277964102
s(g83
S'rp'
p423
tp424
F0.0011737089201877935
s(S'md*'
p425
g19
tp426
F0.3333333333333333
s(g65
g32
tp427
F0.0028776978417266188
s(S'ppss+h'
p428
S'ab'
p429
tp430
F0.00423728813559322
s(S'pps+m'
p431
S'ab'
p432
tp433
F0.00487012987012987
s(g32
g167
tp434
F0.0006633988132532341
s(g2
S'wr'
p435
tp436
F0.0029264394626582007
s(g125
S'in'
p437
tp438
F0.01744186046511628
s(S'be'
p439
g49
tp440
F0.011274509803921568
s(S'pps'
p441
S'ppss'
p442
tp443
F1.863203592256526e-05
s(S'pps'
p444
S'vbn'
p445
tp446
F0.00029811257476104416
s(g74
g38
tp447
F0.0026684817499052498
s(g15
S'md'
p448
tp449
F0.0003642265274749996
s(S'hvd'
p450
S'be'
p451
tp452
F0.038461538461538464
s(g86
S"2''/n"
p453
tp454
F2.4551927326295114e-05
s(g86
S'be'
p455
tp456
F0.018757672477289468
s(S'pn+m'
p457
S'hv+t'
p458
tp459
F0.25
s(S'nps'
p460
S'np'
p461
tp462
F0.02857142857142857
s(S'wdt+bez'
p463
S'nn'
p464
tp465
F0.25
s(g439
g5
tp466
F0.06323529411764706
s(S'pps'
p467
S'be'
p468
tp469
F0.01792401855750778
s(S'pp'
p470
S'vbn'
p471
tp472
F0.0003224376284712426
s(S'in'
p473
S'md'
p474
tp475
F0.003257328990228013
s(S'dt'
p476
S'vbn'
p477
tp478
F0.00035981577432354635
s(g327
S'md'
p479
tp480
F0.033783783783783786
s(S'vb'
p481
S'ppss+h'
p482
tp483
F4.682524817381532e-05
s(g2
S'ap'
p484
tp485
F4.3194678415619194e-05
s(g391
g49
tp486
F0.04
s(g40
S'be'
p487
tp488
F0.015830185285123224
s(g67
g4
tp489
F0.0038535645472061657
s(g330
S'jj'
p490
tp491
F0.028066528066528068
s(S'cd'
p492
S'be'
p493
tp494
F0.002207505518763797
s(S'pps+hv'
p495
g40
tp496
F0.011450381679389313
s(g49
g5
tp497
F0.050802550910379246
s(g167
g5
tp498
F0.048446069469835464
s(g43
g40
tp499
F0.012873609101342248
s(g49
S'jj'
p500
tp501
F0.006130811177177362
s(g256
S'in'
p502
tp503
F0.0031545741324921135
s(S'pp'
p504
g167
tp505
F0.0014590302688323726
s(S'nn'
p506
S'cd'
p507
tp508
F0.005723348503654668
s(S'ppss+hv'
p509
g50
tp510
F0.01606425702811245
s(S'dt+be'
p511
S'vb'
p512
tp513
F0.05012531328320802
s(S'np'
p514
S'nps'
p515
tp516
F0.00014405070584845865
s(g40
g2
tp517
F0.17071415722252203
s(g385
S'dt'
p518
tp519
F0.012345679012345678
s(S'pps'
p520
S'vbg'
p521
tp522
F1.863203592256526e-05
s(S'ppss+m'
p523
S'dod'
p524
tp525
F0.0008143322475570033
s(S'nn$'
p526
g15
tp527
F0.041666666666666664
s(g49
S'np+hv'
p528
tp529
F3.080809636772544e-05
s(g52
g52
tp530
F0.10517267405779843
s(S'wr'
p531
g43
tp532
F0.04646870419629771
s(S'bedz'
p533
S'pp'
p534
tp535
F0.05405405405405406
s(S'ap'
p536
g5
tp537
F0.06593406593406594
s(S'pp'
p538
S'vbg'
p539
tp540
F0.00012091411067671598
s(g52
S'nn+m'
p541
tp542
F8.386306838194597e-06
s(g50
S'hv'
p543
tp544
F0.004860457823769207
s(S'pps+hv'
p545
S'ppss+h'
p546
tp547
F0.003816793893129771
s(S'rb+be'
p548
S'md'
p549
tp550
F0.011627906976744186
s(g309
g86
tp551
F0.061068702290076333
s(g322
S'pp'
p552
tp553
F0.4
s(S'at'
p554
g49
tp555
F0.005333333333333333
s(g391
g5
tp556
F0.12
s(S'vb'
p557
S':'
p558
tp559
F4.682524817381532e-05
s(S'be'
p560
S'md'
p561
tp562
F0.0004901960784313725
s(g554
S'np'
p563
tp564
F0.03911111111111111
s(g15
S'to'
p565
tp566
F1.6068817388602925e-05
s(S'vbg'
p567
S'nns'
p568
tp569
F0.11805555555555555
s(S'wq'
p570
g56
tp571
F0.03723404255319149
s(S'wrb+do'
p572
g83
tp573
F0.1
s(S'pps'
p574
S'nr$'
p575
tp576
F1.863203592256526e-05
s(S'wrb'
p577
g5
tp578
F0.0945945945945946
s(g526
S'nr'
p579
tp580
F0.004629629629629629
s(S'ppss+h'
p581
S'jj'
p582
tp583
F0.007062146892655367
s(g67
g38
tp584
F0.0019267822736030828
s(g38
g65
tp585
F0.02314410480349345
s(S'wr'
p586
S'ap'
p587
tp588
F5.428586938819825e-05
s(S'wdt'
p589
S'pps'
p590
tp591
F0.1368421052631579
s(S'wq'
p592
S'wr'
p593
tp594
F0.0013297872340425532
s(g43
S'vbn'
p595
tp596
F0.0009979541939024999
s(g15
S'ni'
p597
tp598
F0.00010712544925735282
s(g223
S'in'
p599
tp600
F0.0006574621959237344
s(S'rb'
p601
S'wdt'
p602
tp603
F0.0012618296529968455
s(S'pp'
p604
S'nn$'
p605
tp606
F0.00020152351779452663
s(g74
S'ppss+m'
p607
tp608
F0.00031712391810468184
s(S'pps'
p609
S'wdt+be'
p610
tp611
F9.316017961282629e-05
s(S'ppss+be'
p612
S'ppl'
p613
tp614
F0.0008695652173913044
s(g398
g52
tp615
F0.05405405405405406
s(S'pps'
p616
S'ex+be'
p617
tp618
F9.316017961282629e-05
s(g43
S'vbg'
p619
tp620
F0.000149693129085375
s(S'wr'
p621
S'hvd'
p622
tp623
F0.00016285760816459475
s(g570
g40
tp624
F0.015957446808510637
s(S'7074/c'
p625
S'nns'
p626
tp627
F0.014492753623188406
s(S'ppss+h'
p628
g83
tp629
F0.026836158192090395
s(S'nn'
p630
S'nns$'
p631
tp632
F0.00013791201213625708
s(g67
g5
tp633
F0.0674373795761079
s(S'ppss+m'
p634
g40
tp635
F0.018729641693811076
s(S'cd'
p636
S'cd'
p637
tp638
F0.05739514348785872
s(g2
g43
tp639
F0.04695261543777807
s(S'pps+m'
p640
S'pps+m'
p641
tp642
F0.003246753246753247
s(S'cs'
p643
S'do'
p644
tp645
F0.010526315789473684
s(g2
S')'
p646
tp647
F2.1597339207809597e-05
s(S'wq'
p648
S'jj'
p649
tp650
F0.0026595744680851063
s(g86
S'np+be'
p651
tp652
F1.2275963663147557e-05
s(g43
g50
tp653
F0.007734145002744374
s(S'jj'
p654
S'vbz'
p655
tp656
F0.0005989817310572028
s(g577
S'wrb'
p657
tp658
F0.013513513513513514
s(S'nn+be'
p659
g15
tp660
F0.14285714285714285
s(g26
S'pps+hv'
p661
tp662
F0.00012972692482324707
s(S'nn'
p663
S'jj'
p664
tp665
F0.008585022755482003
s(S'pp'
p666
S'ppss+m'
p667
tp668
F7.254846640602959e-05
s(S'np'
p669
S'ab'
p670
tp671
F0.0024488619994237973
s(g49
g40
tp672
F0.01189192519794202
s(S'vb'
p673
S'bedz'
p674
tp675
F9.365049634763064e-05
s(g74
S'ber'
p676
tp677
F4.640837825922173e-05
s(g56
g65
tp678
F0.0071474461933825895
s(g56
g50
tp679
F0.0032926437520077096
s(S'ber'
p680
g43
tp681
F0.08333333333333333
s(S'ppss+m'
p682
S'ppss+h'
p683
tp684
F0.003257328990228013
s(g74
S'nn+hv'
p685
tp686
F7.734729709870288e-06
s(S'ppss'
p687
S'np'
p688
tp689
F0.05555555555555555
s(S'in'
p690
S'cc'
p691
tp692
F0.003257328990228013
s(S'jj'
p693
S'nps$'
p694
tp695
F0.0002994908655286014
s(S'pps+m'
p696
g19
tp697
F0.060064935064935064
s(S'pn'
p698
g56
tp699
F0.014705882352941176
s(S'at'
p700
g558
tp701
F0.0017777777777777779
s(S'vb'
p702
S'pps+hv'
p703
tp704
F4.682524817381532e-05
s(S'vbg'
p705
g558
tp706
F0.006944444444444444
s(g122
S'nn'
p707
tp708
F0.2
s(g50
S'ppss+be'
p709
tp710
F0.00031357792411414236
s(S'nn+hvd'
p711
g19
tp712
F0.16666666666666666
s(S'jjr'
p713
S'rb'
p714
tp715
F0.02631578947368421
s(S'fw'
p716
g5
tp717
F0.05701754385964912
s(S'dt'
p718
S'md'
p719
tp720
F0.0002878526194588371
s(S'pp$'
p721
S'do'
p722
tp723
F0.012345679012345678
s(g86
S'pp$'
p724
tp725
F0.00024551927326295114
s(S'vb+pp'
p726
S'be'
p727
tp728
F0.0078125
s(S'wr'
p729
S'Output/jj'
p730
tp731
F5.428586938819825e-05
s(g223
S'nps'
p732
tp733
F0.0006574621959237344
s(g86
S'ber'
p734
tp735
F3.682789098944267e-05
s(S'wd'
p736
S'nns'
p737
tp738
F0.0012106537530266344
s(g32
S'to+v'
p739
tp740
F1.8427744812589837e-05
s(S'wd'
p741
S'ql'
p742
tp743
F0.00017295053614666206
s(g43
S'np'
p744
tp745
F0.0053889526470735
s(S'dod'
p746
S'pp'
p747
tp748
F0.10416666666666667
s(g83
g49
tp749
F0.008215962441314555
s(g289
S'nns'
p750
tp751
F0.2727272727272727
s(g38
S'cc'
p752
tp753
F0.0002183406113537118
s(g32
S'jjt'
p754
tp755
F1.8427744812589837e-05
s(S'ex+be'
p756
g38
tp757
F0.014084507042253521
s(g74
S'cc'
p758
tp759
F0.0002088377021664978
s(S'vb'
p760
g32
tp761
F0.0055722045326840235
s(S'vbg'
p762
g74
tp763
F0.013888888888888888
s(g167
S'do'
p764
tp765
F0.002742230347349177
s(S'pps+m'
p766
S'rb'
p767
tp768
F0.003246753246753247
s(S'pp'
p769
S'wq'
p770
tp771
F8.867034782959171e-05
s(g56
g5
tp772
F0.06922582717635721
s(g56
S'dt+be'
p773
tp774
F0.00016061676839062
s(S'at'
p775
S'hv'
p776
tp777
F0.006222222222222222
s(g65
S'jj'
p778
tp779
F0.00671462829736211
s(g322
g83
tp780
F0.2
s(g43
S'vbg+t'
p781
tp782
F4.9897709695124994e-05
s(g203
g83
tp783
F0.02127659574468085
s(g15
S'vbz'
p784
tp785
F1.0712544925735283e-05
s(g86
S'ppss+h'
p786
tp787
F8.59317456420329e-05
s(g26
S'doz'
p788
tp789
F6.486346241162354e-05
s(S'nns'
p790
S'pp'
p791
tp792
F0.008316008316008316
s(g26
S'dod'
p793
tp794
F0.00025945384964649415
s(g300
g52
tp795
F0.08265947888589398
s(g32
S'pp$'
p796
tp797
F0.00035012715143920687
s(g74
S'wps'
p798
tp799
F1.5469459419740576e-05
s(S'jj'
p800
S'nn+bez'
p801
tp802
F0.0002994908655286014
s(S'np'
p803
g15
tp804
F0.07087294727744166
s(g2
S'nr$'
p805
tp806
F1.0798669603904798e-05
s(g38
g26
tp807
F0.002183406113537118
s(S'be'
p808
S'vbz'
p809
tp810
F0.0004901960784313725
s(S'wrb+be'
p811
g43
tp812
F0.08
s(S'vbn'
p813
S'np'
p814
tp815
F0.0472972972972973
s(g56
S'wd'
p816
tp817
F0.0048988114359139094
s(S'np'
p818
S'ap'
p819
tp820
F0.0002881014116969173
s(g2
S'nn+be'
p821
tp822
F1.0798669603904798e-05
s(g15
S'ppss+h'
p823
tp824
F1.0712544925735283e-05
s(S'vb'
p825
S'nn$'
p826
tp827
F0.0004214272335643379
s(g2
S'nn$'
p828
tp829
F0.00031316141851323915
s(g49
S'cd'
p830
tp831
F0.0008318186019285868
s(S'at'
p832
S'vbg'
p833
tp834
F0.008
s(S'do'
p835
g86
tp836
F0.028846153846153848
s(S'rb+bez'
p837
g558
tp838
F0.125
s(g383
g74
tp839
F0.05835010060362173
s(g26
S'np'
p840
tp841
F0.004929623143283389
s(g463
g19
tp842
F0.25
s(S'to'
p843
S'rb'
p844
tp845
F0.023255813953488372
s(S'hv'
p846
g67
tp847
F0.012303485987696514
s(S'pp'
p848
S'pp$'
p849
tp850
F0.00019346257708274556
s(g307
S'nn'
p851
tp852
F0.16
s(g74
g83
tp853
F0.005128125797644001
s(g86
g646
tp854
F1.2275963663147557e-05
s(S'ppss+m'
p855
g4
tp856
F0.013029315960912053
s(S'do'
p857
S'ppl'
p858
tp859
F0.0008012820512820513
s(S'wdt'
p860
S'vb'
p861
tp862
F0.031578947368421054
s(g26
S'ppl'
p863
tp864
F0.0001945903872348706
s(S'at'
p865
S'in'
p866
tp867
F0.04888888888888889
s(S'vb'
p868
S'ppss+hv'
p869
tp870
F4.682524817381532e-05
s(S'ppss+m'
p871
g19
tp872
F0.05374592833876222
s(g15
S'hp/j'
p873
tp874
F5.356272462867641e-06
s(g40
g26
tp875
F0.0007195538765965102
s(g146
g4
tp876
F0.005012531328320802
s(S'np'
p877
S'or/c'
p878
tp879
F0.00014405070584845865
s(g43
S'rb+bez'
p880
tp881
F4.9897709695124994e-05
s(S'be'
p882
g40
tp883
F0.014705882352941176
s(S'ppss+hv'
p884
S'hv'
p885
tp886
F0.012048192771084338
s(g307
g52
tp887
F0.12
s(g43
g52
tp888
F0.11336759642732398
s(g83
S'md'
p889
tp890
F0.0011737089201877935
s(S'ppss+m'
p891
S'np'
p892
tp893
F0.008143322475570033
s(S'pp'
p894
S'be'
p895
tp896
F0.01658135504413365
s(S'nn'
p897
S'in'
p898
tp899
F0.007688594676596332
s(g74
S'cell/nn'
p900
tp901
F7.734729709870288e-06
s(S'hv'
p902
g43
tp903
F0.05194805194805195
s(S'wp'
p904
g32
tp905
F0.002306805074971165
s(S'ex+m'
p906
g50
tp907
F0.07142857142857142
s(g15
S'nps'
p908
tp909
F0.0001178379941830881
s(g56
S'rp+i'
p910
tp911
F8.030838419531e-05
s(S'to'
p912
S'cd'
p913
tp914
F0.023255813953488372
s(S'at'
p915
S'vbn'
p916
tp917
F0.005333333333333333
s(g15
S'Output/jj'
p918
tp919
F1.0712544925735283e-05
s(g56
g26
tp920
F0.00032123353678124
s(g43
S'pp$'
p921
tp922
F0.00019959083878049998
s(g67
g19
tp923
F0.08863198458574181
s(S'at'
p924
g5
tp925
F0.04622222222222222
s(g56
S"16''/n"
p926
tp927
F0.00024092515258592996
s(S'md'
p928
g56
tp929
F0.08860759493670886
s(g167
S'wp'
p930
tp931
F0.005484460694698354
s(S'jj'
p932
S'dt'
p933
tp934
F0.0011979634621144056
s(S'hv'
p935
S'nn'
p936
tp937
F0.04921394395078606
s(S'vb'
p938
S'pn'
p939
tp940
F4.682524817381532e-05
s(S'wp'
p941
S'wp'
p942
tp943
F0.00461361014994233
s(S'ppss+be'
p944
S'np$'
p945
tp946
F0.0017391304347826088
s(g50
g15
tp947
F0.10128566948886798
s(g233
g5
tp948
F0.0784313725490196
s(g526
S'at'
p949
tp950
F0.018518518518518517
s(g38
S'dt'
p951
tp952
F0.008296943231441048
s(g52
g49
tp953
F0.009057211385250164
s(S'pps'
p954
g40
tp955
F0.016209871252631774
s(g65
g74
tp956
F0.051798561151079135
s(S'pps+hv'
p957
g49
tp958
F0.009541984732824428
s(S'to'
p959
g558
tp960
F0.18604651162790697
s(g32
S'np$'
p961
tp962
F5.52832344377695e-05
s(g378
g40
tp963
F0.02
s(g52
S'ex'
p964
tp965
F8.386306838194597e-06
s(S'pps+be'
p966
g2
tp967
F0.15028535193405199
s(g86
S'cs'
p968
tp969
F1.2275963663147557e-05
s(g15
S'wrb'
p970
tp971
F5.356272462867641e-06
s(g32
S'pps+hv'
p972
tp973
F0.00036855489625179673
s(S'vbg'
p974
S'np'
p975
tp976
F0.010416666666666666
s(S'bez'
p977
g50
tp978
F0.02127659574468085
s(S'pps+m'
p979
S'nn'
p980
tp981
F0.025974025974025976
s(S'pp'
p982
S'bez'
p983
tp984
F0.00012091411067671598
s(S'pn'
p985
S'vb'
p986
tp987
F0.07352941176470588
s(S'fw'
p988
g15
tp989
F0.06359649122807018
s(g378
g52
tp990
F0.04
s(g680
g83
tp991
F0.08333333333333333
s(g74
S"16''/n"
p992
tp993
F7.734729709870288e-06
s(S'np$'
p994
S'jj'
p995
tp996
F0.011494252873563218
s(g50
g74
tp997
F0.0669488867983694
s(g49
S'np'
p998
tp999
F0.005422224960719677
s(S'pps+m'
p1000
S'jj'
p1001
tp1002
F0.008116883116883116
s(S'pps'
p1003
S'doz'
p1004
tp1005
F5.5896107767695777e-05
s(g15
S'wps+bez'
p1006
tp1007
F5.356272462867641e-06
s(S'wps+be'
p1008
g19
tp1009
F0.2857142857142857
s(S'bed'
p1010
S'ab'
p1011
tp1012
F0.006741573033707865
s(g43
S'cd'
p1013
tp1014
F0.0008981587745122499
s(g223
S'cd'
p1015
tp1016
F0.0019723865877712033
s(S'pn+be'
p1017
g52
tp1018
F0.14285714285714285
s(S'np'
p1019
S'hvz'
p1020
tp1021
F0.00014405070584845865
s(g300
S'vb'
p1022
tp1023
F0.05720275531596286
s(g52
S'hvd'
p1024
tp1025
F4.193153419097298e-05
s(S'vbg'
p1026
S'nn'
p1027
tp1028
F0.16666666666666666
s(g192
g15
tp1029
F0.18181818181818182
s(g2
S'ppss+hv'
p1030
tp1031
F4.3194678415619194e-05
s(g15
S'ber'
p1032
tp1033
F1.6068817388602925e-05
s(g225
S'nns'
p1034
tp1035
F0.010638297872340425
s(S'jjr'
p1036
S'nn'
p1037
tp1038
F0.15789473684210525
s(g56
g15
tp1039
F0.09058785737230966
s(S'jjr'
p1040
g19
tp1041
F0.13157894736842105
s(S'be'
p1042
S'nn$'
p1043
tp1044
F0.000980392156862745
s(S'nns$'
p1045
S'nn'
p1046
tp1047
F0.1875
s(g15
S'dod*'
p1048
tp1049
F5.356272462867641e-06
s(g15
S"16''/n"
p1050
tp1051
F5.356272462867641e-06
s(g56
S'nn'
p1052
tp1053
F0.06842274333440411
s(g460
S'nn'
p1054
tp1055
F0.05714285714285714
s(g49
S'pp'
p1056
tp1057
F0.027388397670907914
s(S'ap'
p1058
S'ap'
p1059
tp1060
F0.01098901098901099
s(S'jj'
p1061
S'at'
p1062
tp1063
F0.002395926924228811
s(g74
S'nns$'
p1064
tp1065
F6.96125673888326e-05
s(g365
g2
tp1066
F0.09876543209876543
s(g50
g26
tp1067
F0.0018814675446848542
s(g380
S'ppo'
p1068
tp1069
F0.0006309148264984228
s(g65
g65
tp1070
F0.009112709832134292
s(S'ex+be'
p1071
S'dt'
p1072
tp1073
F0.006036217303822937
s(g15
S'2/c'
p1074
tp1075
F5.356272462867641e-06
s(g56
S'ppss+be'
p1076
tp1077
F0.00032123353678124
s(g1010
g2
tp1078
F0.13258426966292136
s(g985
g19
tp1079
F0.07352941176470588
s(S'jjt'
p1080
g5
tp1081
F0.2
s(S'jj'
p1082
g32
tp1083
F0.0017969451931716084
s(g65
g38
tp1084
F0.003357314148681055
s(g67
g15
tp1085
F0.06936416184971098
s(S'wdt'
p1086
S'vbz'
p1087
tp1088
F0.010526315789473684
s(g625
S'nn'
p1089
tp1090
F0.2028985507246377
s(S'vb'
p1091
S'do'
p1092
tp1093
F0.001170631204345383
s(g292
S'at'
p1094
tp1095
F0.011494252873563218
s(g977
g52
tp1096
F0.06382978723404255
s(g15
S'ppo'
p1097
tp1098
F1.0712544925735283e-05
s(g223
S'pn'
p1099
tp1100
F0.0013149243918474688
s(g50
S'wr'
p1101
tp1102
F0.00266541235497021
s(g322
g5
tp1103
F0.2
s(g902
g50
tp1104
F0.009569377990430622
s(g74
S'wdt+be'
p1105
tp1106
F7.734729709870288e-06
s(g220
g19
tp1107
F0.05508474576271186
s(S'pps'
p1108
S'bem'
p1109
tp1110
F3.726407184513052e-05
s(S'rb'
p1111
S'ab'
p1112
tp1113
F0.002523659305993691
s(g220
g86
tp1114
F0.0635593220338983
s(S'nn'
p1115
g43
tp1116
F0.049303544338711904
s(S'wd'
p1117
S'wp'
p1118
tp1119
F0.005015565548253199
s(g52
g43
tp1120
F0.05732879354589826
s(g74
S'nps'
p1121
tp1122
F8.508202680857318e-05
s(S'vbn'
p1123
S'nr'
p1124
tp1125
F0.0033783783783783786
s(S'vb'
p1126
S'be'
p1127
tp1128
F0.01381344821127552
s(g4
g40
tp1129
F0.02981651376146789
s(g149
g646
tp1130
F0.010526315789473684
s(g223
g49
tp1131
F0.007889546351084813
s(S'ab'
p1132
S'fw'
p1133
tp1134
F0.0004863024801426487
s(g38
S'bez'
p1135
tp1136
F0.0002183406113537118
s(g643
S'*'
p1137
tp1138
F0.021052631578947368
s(S'ppss+h'
p1139
g67
tp1140
F0.0014124293785310734
s(g26
S'nns$'
p1141
tp1142
F6.486346241162354e-05
s(S'wr'
p1143
S'ppss+hv'
p1144
tp1145
F0.0001085717387763965
s(S'nns'
p1146
S'wrb'
p1147
tp1148
F0.0010395010395010396
s(g83
g52
tp1149
F0.10093896713615023
s(g107
S'hv'
p1150
tp1151
F0.004006410256410256
s(g55
g15
tp1152
F0.08197855413351782
s(S'vbg'
p1153
S'vbg'
p1154
tp1155
F0.006944444444444444
s(g26
S'to'
p1156
tp1157
F6.486346241162354e-05
s(S'vb'
p1158
g119
tp1159
F4.682524817381532e-05
s(g38
g74
tp1160
F0.06222707423580786
s(g1017
g2
tp1161
F0.14285714285714285
s(g86
g2
tp1162
F0.15732875030689908
s(g167
g19
tp1163
F0.09963436928702012
s(S'np'
p1164
g65
tp1165
F0.005762028233938346
s(S'wp'
p1166
S'rb'
p1167
tp1168
F0.002306805074971165
s(g49
S'pps+m'
p1169
tp1170
F3.080809636772544e-05
s(g49
S'vbg'
p1171
tp1172
F6.161619273545088e-05
s(S'pn+be'
p1173
g86
tp1174
F0.03571428571428571
s(g43
S'7074/c'
p1175
tp1176
F4.9897709695124994e-05
s(S'md'
p1177
S'vbn'
p1178
tp1179
F0.006329113924050633
s(S'vbg'
p1180
S'wps'
p1181
tp1182
F0.003472222222222222
s(S'nns'
p1183
g125
tp1184
F0.0010395010395010396
s(g977
S'pp'
p1185
tp1186
F0.031914893617021274
s(g32
g5
tp1187
F0.07361884052629639
s(g43
S'ber'
p1188
tp1189
F9.979541939024999e-05
s(g52
S'ex+be'
p1190
tp1191
F5.031784102916757e-05
s(S'wd'
p1192
S'doz'
p1193
tp1194
F0.00017295053614666206
s(S'wdt+ber+p'
p1195
g38
tp1196
F0.05263157894736842
s(g439
g19
tp1197
F0.10392156862745099
s(S'pp'
p1198
S'abn'
p1199
tp1200
F8.060940711781064e-06
s(S'ab'
p1201
S'wrb+bez'
p1202
tp1203
F0.00016210082671421625
s(S'rb'
p1204
S'wr'
p1205
tp1206
F0.004416403785488959
s(S'nn'
p1207
S'dod'
p1208
tp1209
F0.00013791201213625708
s(S'nr'
p1210
g2
tp1211
F0.13934426229508196
s(g32
S'wr'
p1212
tp1213
F0.005528323443776951
s(S'vb'
p1214
S'nn'
p1215
tp1216
F0.07136167821689456
s(g86
S'pn+hv'
p1217
tp1218
F1.2275963663147557e-05
s(g10
g52
tp1219
F0.03488372093023256
s(S'ppss+h'
p1220
S'do'
p1221
tp1222
F0.0014124293785310734
s(g52
S'wdt'
p1223
tp1224
F8.386306838194597e-06
s(S'hvd'
p1225
S'to'
p1226
tp1227
F0.038461538461538464
s(S'ppss+m'
p1228
S'np+be'
p1229
tp1230
F0.0008143322475570033
s(g533
g5
tp1231
F0.0945945945945946
s(g49
S'be'
p1232
tp1233
F0.026433346683508427
s(g40
S'16/c'
p1234
tp1235
F0.00017988846914912754
s(g40
S'pn'
p1236
tp1237
F0.0005396654074473826
s(g86
g40
tp1238
F0.013098453228578444
s(g32
g40
tp1239
F0.013894519588692736
s(g32
S'ex+m'
p1240
tp1241
F1.8427744812589837e-05
s(g32
S'ppo'
p1242
tp1243
F1.8427744812589837e-05
s(S'wq'
p1244
S'dt'
p1245
tp1246
F0.007978723404255319
s(g88
S'hv'
p1247
tp1248
F0.008832807570977918
s(g50
S'wd'
p1249
tp1250
F0.004390090937597993
s(g223
g32
tp1251
F0.0046022353714661405
s(g49
S'vbn'
p1252
tp1253
F0.0004621214455158816
s(S'dt'
p1254
S'nns'
p1255
tp1256
F0.001871042026482441
s(g855
g65
tp1257
F0.004885993485342019
s(g223
S'at'
p1258
tp1259
F0.0006574621959237344
s(g38
S'wp'
p1260
tp1261
F0.006550218340611353
s(g26
S'at'
p1262
tp1263
F0.000972951936174353
s(S'wq'
p1264
S'ppl'
p1265
tp1266
F0.0013297872340425532
s(g15
g646
tp1267
F3.749390724007349e-05
s(S'vb'
p1268
S'rp'
p1269
tp1270
F4.682524817381532e-05
s(S'wd'
p1271
S'nn$'
p1272
tp1273
F0.0003459010722933241
s(g959
S'vb'
p1274
tp1275
F0.20930232558139536
s(S'vb'
p1276
g167
tp1277
F0.0013579321970406443
s(g102
g49
tp1278
F0.020833333333333332
s(g74
S'ppss+hv'
p1279
tp1280
F8.508202680857318e-05
s(S'np'
p1281
g50
tp1282
F0.008787093056755978
s(S'in'
p1283
S'in'
p1284
tp1285
F0.08143322475570032
s(g15
S'hv'
p1286
tp1287
F0.006288263871406611
s(S'wps+m'
p1288
g83
tp1289
F0.14285714285714285
s(g65
g26
tp1290
F0.0014388489208633094
s(g52
S'nns'
p1291
tp1292
F0.0029352073933681085
s(S'np'
p1293
S'ni'
p1294
tp1295
F0.00014405070584845865
s(g56
S'4/c'
p1296
tp1297
F8.030838419531e-05
s(S'bed'
p1298
g56
tp1299
F0.017977528089887642
s(S'wdt+be'
p1300
g4
tp1301
F0.01098901098901099
s(g144
S'wr'
p1302
tp1303
F0.005608974358974359
s(S'at'
p1304
S'cs'
p1305
tp1306
F0.0044444444444444444
s(g698
g43
tp1307
F0.14705882352941177
s(S'cd'
p1308
g74
tp1309
F0.008830022075055188
s(S'bedz'
p1310
S'ql'
p1311
tp1312
F0.013513513513513514
s(S'np'
p1313
g83
tp1314
F0.004033419763756842
s(S'ppss+be'
p1315
S'wp'
p1316
tp1317
F0.00608695652173913
s(g26
g50
tp1318
F0.007978205876629695
s(g223
S'pps+hv'
p1319
tp1320
F0.0019723865877712033
s(S'vbg'
p1321
S'in'
p1322
tp1323
F0.07291666666666667
s(g32
S'hv+t'
p1324
tp1325
F1.8427744812589837e-05
s(S'vb'
p1326
S'wd'
p1327
tp1328
F0.004026971342948118
s(S'cc'
p1329
S'nn'
p1330
tp1331
F0.375
s(g2
S'ex+be'
p1332
tp1333
F2.1597339207809597e-05
s(S'nns$'
p1334
g5
tp1335
F0.0625
s(g2
g38
tp1336
F0.0013606323700920046
s(g696
g65
tp1337
F0.011363636363636364
s(S'nns'
p1338
S'nn$'
p1339
tp1340
F0.002079002079002079
s(S'be'
p1341
g56
tp1342
F0.029411764705882353
s(S'ex+be'
p1343
g167
tp1344
F0.002012072434607646
s(g625
g5
tp1345
F0.014492753623188406
s(g220
g43
tp1346
F0.03248587570621469
s(g388
S'be'
p1347
tp1348
F0.005700325732899023
s(g71
g5
tp1349
F0.08421052631578947
s(S'ppss'
p1350
S'nn'
p1351
tp1352
F0.1111111111111111
s(g49
S'dod'
p1353
tp1354
F0.00012323238547090175
s(g83
S'vb'
p1355
tp1356
F0.06807511737089202
s(S'wr'
p1357
S'wdt+bez'
p1358
tp1359
F5.428586938819825e-05
s(g625
g43
tp1360
F0.014492753623188406
s(S'wdt+be'
p1361
g49
tp1362
F0.03296703296703297
s(g167
g4
tp1363
F0.006398537477148081
s(S'vb'
p1364
S'np'
p1365
tp1366
F0.007585690204158082
s(g439
g15
tp1367
F0.08970588235294118
s(g330
g65
tp1368
F0.005197505197505198
s(g1173
g223
tp1369
F0.03571428571428571
s(S'rb+be'
p1370
g2
tp1371
F0.12790697674418605
s(g327
g19
tp1372
F0.13513513513513514
s(g49
S'mbf/nn'
p1373
tp1374
F3.080809636772544e-05
s(S'ppss+be'
p1375
g2
tp1376
F0.11130434782608696
s(g52
g119
tp1377
F5.870414786736217e-05
s(g32
S'ppss+be'
p1378
tp1379
F0.004164670327645303
s(g906
g15
tp1380
F0.21428571428571427
s(S'wr'
p1381
g32
tp1382
F0.004505727159220455
s(g52
S'ppss+md'
p1383
tp1384
F1.6772613676389193e-05
s(g218
g67
tp1385
F0.01639344262295082
s(g882
S'nr$'
p1386
tp1387
F0.0004901960784313725
s(g368
g19
tp1388
F0.06912485327271711
s(g74
g65
tp1389
F0.0136672673973408
s(g65
S'ab'
p1390
tp1391
F0.0028776978417266188
s(S'nn'
p1392
S'ppss+ber'
p1393
tp1394
F3.447800303406427e-05
s(g1173
g56
tp1395
F0.10714285714285714
s(g52
S'abn'
p1396
tp1397
F2.5158920514583786e-05
s(S'dt'
p1398
S'bed'
p1399
tp1400
F0.002086931491076569
s(S'jjr'
p1401
S'np'
p1402
tp1403
F0.02631578947368421
s(g1045
g19
tp1404
F0.25
s(g214
g86
tp1405
F0.04121750158528852
s(S'be'
p1406
S'pps'
p1407
tp1408
F0.02696078431372549
s(g32
S'wrb+d'
p1409
tp1410
F1.8427744812589837e-05
s(g15
S'/i'
p1411
tp1412
F8.034408694301461e-05
s(S'vb'
p1413
S'rb'
p1414
tp1415
F0.0009833302116501218
s(g225
S'at'
p1416
tp1417
F0.02127659574468085
s(g52
S"2''/n"
p1418
tp1419
F8.386306838194597e-06
s(S'wrb'
p1420
S'np'
p1421
tp1422
F0.006756756756756757
s(g56
S'bedz'
p1423
tp1424
F8.030838419531e-05
s(g56
S'ex+be'
p1425
tp1426
F8.030838419531e-05
s(S'wd'
p1427
S'bed'
p1428
tp1429
F0.013144240747146317
s(g52
S'pp'
p1430
tp1431
F0.031976987974035996
s(g86
g83
tp1432
F0.005180456665848269
s(g640
S'hv'
p1433
tp1434
F0.0016233766233766235
s(g218
g56
tp1435
F0.02459016393442623
s(S'dt+be'
p1436
S'bez'
p1437
tp1438
F0.002506265664160401
s(S'wr'
p1439
S'ql'
p1440
tp1441
F0.0004885728244937843
s(g56
S'3/c'
p1442
tp1443
F8.030838419531e-05
s(g50
S'be'
p1444
tp1445
F0.022577610536218252
s(S'np+be'
p1446
g50
tp1447
F0.07692307692307693
s(g74
S"4''/n"
p1448
tp1449
F7.734729709870288e-06
s(S'ex+be'
p1450
S'ql'
p1451
tp1452
F0.002012072434607646
s(g74
S'bed'
p1453
tp1454
F0.008399916464919133
s(S'pp'
p1455
S'vb+t'
p1456
tp1457
F8.060940711781064e-06
s(g2
S"4''/n"
p1458
tp1459
F1.0798669603904798e-05
s(S'vb+r'
p1460
g86
tp1461
F0.25
s(g122
S'in'
p1462
tp1463
F0.1
s(g86
S'nns'
p1464
tp1465
F0.0016449791308617726
s(S'wr'
p1466
S'uh'
p1467
tp1468
F0.00016285760816459475
s(S'wp'
p1469
S'pps+hv'
p1470
tp1471
F0.0011534025374855825
s(g86
S'cd'
p1472
tp1473
F0.0004296587282101645
s(S'vb'
p1474
S'wr'
p1475
tp1476
F0.0018730099269526129
s(S'ab'
p1477
S'be'
p1478
tp1479
F0.027881342194845192
s(S'at'
p1480
S'pp'
p1481
tp1482
F0.006222222222222222
s(S'dt'
p1483
S'pn'
p1484
tp1485
F0.00014392630972941855
s(g300
g86
tp1486
F0.02336028751123091
s(g928
g52
tp1487
F0.06329113924050633
s(g49
g646
tp1488
F3.080809636772544e-05
s(g43
S'ppss+be'
p1489
tp1490
F9.979541939024999e-05
s(g77
S'vb'
p1491
tp1492
F0.020833333333333332
s(S'ppss+hv'
p1493
S'dod'
p1494
tp1495
F0.012048192771084338
s(g49
S'nps'
p1496
tp1497
F3.080809636772544e-05
s(g32
S'pp'
p1498
tp1499
F0.053311465742822396
s(S'wd'
p1500
g65
tp1501
F0.016430300933932895
s(S'jj'
p1502
g83
tp1503
F0.0026954177897574125
s(S'nn'
p1504
S'ab'
p1505
tp1506
F0.002310026203282306
s(S'wd'
p1507
S'ppss+be'
p1508
tp1509
F0.00017295053614666206
s(S'ni'
p1510
S'nn'
p1511
tp1512
F0.01694915254237288
s(S'wdt'
p1513
S'jj'
p1514
tp1515
F0.010526315789473684
s(g625
S'vb'
p1516
tp1517
F0.14492753623188406
s(g43
S'ppl'
p1518
tp1519
F0.00029938625817075
s(S'ap'
p1520
S'to'
p1521
tp1522
F0.01098901098901099
s(g52
S'wps'
p1523
tp1524
F8.386306838194597e-06
s(g1244
S'np'
p1525
tp1526
F0.005319148936170213
s(g2
g65
tp1527
F0.0085525463262926
s(S'pps+hv'
p1528
g52
tp1529
F0.08969465648854962
s(g49
S'in'
p1530
tp1531
F0.0011398995656058412
s(g74
S'pn'
p1532
tp1533
F0.00011602094564805433
s(g1195
g15
tp1534
F0.05263157894736842
s(S'rb'
p1535
S'wrb'
p1536
tp1537
F0.0006309148264984228
s(S'jj'
p1538
g38
tp1539
F0.0011979634621144056
s(S'cd'
p1540
S'at'
p1541
tp1542
F0.011037527593818985
s(g32
S'ap'
p1543
tp1544
F3.685548962517967e-05
s(g65
g86
tp1545
F0.03741007194244604
s(g1008
g83
tp1546
F0.2857142857142857
s(S'md'
p1547
g49
tp1548
F0.0189873417721519
s(g634
g67
tp1549
F0.013029315960912053
s(g67
g65
tp1550
F0.0019267822736030828
s(S'dt'
p1551
S'bez'
p1552
tp1553
F7.196315486470927e-05
s(S'wd'
p1554
S'nr'
p1555
tp1556
F0.0003459010722933241
s(g1406
g43
tp1557
F0.059313725490196076
s(S'dt'
p1558
S'ft/n'
p1559
tp1560
F7.196315486470927e-05
s(g130
S'in'
p1561
tp1562
F0.09375
s(g26
g19
tp1563
F0.06687422974638386
s(S'nns$'
p1564
g558
tp1565
F0.0625
s(S'pp'
p1566
S'ql'
p1567
tp1568
F0.0002982548063358994
s(g570
S'pp'
p1569
tp1570
F0.047872340425531915
s(S'rb'
p1571
g119
tp1572
F0.0031545741324921135
s(g10
S'vb'
p1573
tp1574
F0.08139534883720931
s(S'bez'
p1575
S'ab'
p1576
tp1577
F0.010638297872340425
s(g40
g43
tp1578
F0.06224141032559813
s(g1375
S'vb'
p1579
tp1580
F0.07652173913043478
s(g26
S'np+be'
p1581
tp1582
F6.486346241162354e-05
s(g32
g26
tp1583
F0.0014373640953820072
s(g208
g52
tp1584
F0.08823529411764706
s(g26
S'jjr'
p1585
tp1586
F6.486346241162354e-05
s(S'wr'
p1587
S'to'
p1588
tp1589
F0.00016285760816459475
s(S'do*'
p1590
S'dti'
p1591
tp1592
F0.03125
s(g52
g223
tp1593
F0.00011740829573472435
s(g238
g26
tp1594
F0.0011347057869995137
s(g167
g67
tp1595
F0.007312614259597806
s(g4
g49
tp1596
F0.009174311926605505
s(g167
g43
tp1597
F0.06581352833638025
s(g52
S'bed'
p1598
tp1599
F0.00737156371077305
s(S'fw'
p1600
S'bed'
p1601
tp1602
F0.006578947368421052
s(g83
S'vbd'
p1603
tp1604
F0.0011737089201877935
s(g83
S'ql'
p1605
tp1606
F0.0011737089201877935
s(g223
g40
tp1607
F0.012491781722550954
s(g97
S'be'
p1608
tp1609
F0.017425764073611637
s(g49
g223
tp1610
F0.00012323238547090175
s(g26
S'hv'
p1611
tp1612
F0.006226892391515859
s(g223
S'nn'
p1613
tp1614
F0.03616042077580539
s(S'vbn'
p1615
g125
tp1616
F0.010135135135135136
s(S'bedz'
p1617
g56
tp1618
F0.04054054054054054
s(g1510
g32
tp1619
F0.01694915254237288
s(S'nns'
p1620
S'np'
p1621
tp1622
F0.029106029106029108
s(g65
S'wr'
p1623
tp1624
F0.0028776978417266188
s(S'nn$'
p1625
S'to'
p1626
tp1627
F0.004629629629629629
s(S'pp'
p1628
S'hvz'
p1629
tp1630
F7.254846640602959e-05
s(S'ap'
p1631
S'pp$'
p1632
tp1633
F0.01098901098901099
s(g179
S'ppss+be'
p1634
tp1635
F0.003257328990228013
s(g1300
S'hv'
p1636
tp1637
F0.01098901098901099
s(g2
S'md'
p1638
tp1639
F0.0004967388017796207
s(g256
g67
tp1640
F0.0018927444794952682
s(g43
S'be'
p1641
tp1642
F0.024749264008781996
s(S'np'
p1643
S'hv'
p1644
tp1645
F0.00749063670411985
s(S'vbg'
p1646
S'to'
p1647
tp1648
F0.003472222222222222
s(g15
S'g/n'
p1649
tp1650
F5.356272462867641e-06
s(S'vb'
p1651
S'nns'
p1652
tp1653
F0.001732534182431167
s(S'md'
p1654
g74
tp1655
F0.04430379746835443
s(g338
g19
tp1656
F0.18981481481481483
s(g52
S'bez'
p1657
tp1658
F5.870414786736217e-05
s(g1493
g4
tp1659
F0.004016064257028112
s(S'cd'
p1660
S'vb'
p1661
tp1662
F0.008830022075055188
s(S'nns'
p1663
S'doz'
p1664
tp1665
F0.0010395010395010396
s(g837
S'pp$'
p1666
tp1667
F0.125
s(S'dt'
p1668
S'nr'
p1669
tp1670
F0.00014392630972941855
s(g1195
S'pp'
p1671
tp1672
F0.05263157894736842
s(g52
S'wps+hv'
p1673
tp1674
F8.386306838194597e-06
s(g15
g38
tp1675
F0.0013069304809397045
s(g49
S'bedz'
p1676
tp1677
F3.080809636772544e-05
s(S'pp'
p1678
S'uh'
p1679
tp1680
F1.612188142356213e-05
s(g1460
g2
tp1681
F0.25
s(g4
S'wp'
p1682
tp1683
F0.0045871559633027525
s(g1195
g83
tp1684
F0.05263157894736842
s(g837
S'in'
p1685
tp1686
F0.125
s(g32
g32
tp1687
F0.00560203442302731
s(g49
S'cc'
p1688
tp1689
F0.0002464647709418035
s(g52
S'vbg'
p1690
tp1691
F0.00015095352308750273
s(g928
S'vb'
p1692
tp1693
F0.0379746835443038
s(g74
S'doz'
p1694
tp1695
F7.734729709870289e-05
s(g223
S'wp'
p1696
tp1697
F0.0046022353714661405
s(g38
g86
tp1698
F0.04279475982532751
s(S'wp'
p1699
S'pps'
p1700
tp1701
F0.011534025374855825
s(g15
S'dt'
p1702
tp1703
F0.0038886538080419074
s(S'vb'
p1704
g125
tp1705
F4.682524817381532e-05
s(g43
g74
tp1706
F0.06351978444189411
s(S'ab'
p1707
g32
tp1708
F0.00259361322742746
s(g509
S'do'
p1709
tp1710
F0.004016064257028112
s(S'vb'
p1711
S'ppss+be'
p1712
tp1713
F0.00014047574452144597
s(S'pps'
p1714
S'nns'
p1715
tp1716
F0.0016209871252631776
s(S'fw'
p1717
S'at'
p1718
tp1719
F0.0043859649122807015
s(g189
S'dt'
p1720
tp1721
F0.00461361014994233
s(g330
g15
tp1722
F0.0395010395010395
s(g52
S'vbg+t'
p1723
tp1724
F8.386306838194597e-06
s(g52
S'doz'
p1725
tp1726
F4.193153419097298e-05
s(g928
g15
tp1727
F0.056962025316455694
s(g86
S'dt+be'
p1728
tp1729
F6.137981831573779e-05
s(g223
g38
tp1730
F0.005259697567389875
s(g365
S'bed'
p1731
tp1732
F0.04938271604938271
s(S'np'
p1733
S'wq'
p1734
tp1735
F0.00014405070584845865
s(g355
S'wql'
p1736
tp1737
F9.365049634763064e-05
s(S'to'
p1738
S'nns'
p1739
tp1740
F0.09302325581395349
s(g15
g83
tp1741
F0.004579612955751833
s(g15
g86
tp1742
F0.030734291391934523
s(S'fw'
p1743
S'be'
p1744
tp1745
F0.010964912280701754
s(g4
g52
tp1746
F0.0871559633027523
s(g74
g15
tp1747
F0.09485099043213935
s(S'vb'
p1748
S'jjr'
p1749
tp1750
F4.682524817381532e-05
s(g86
S'vbz'
p1751
tp1752
F7.365578197888534e-05
s(S'be'
p1753
g83
tp1754
F0.006372549019607843
s(S'ber'
p1755
S'vb'
p1756
tp1757
F0.08333333333333333
s(g225
g5
tp1758
F0.09574468085106383
s(g4
S'nns'
p1759
tp1760
F0.013761467889908258
s(g83
S'bed'
p1761
tp1762
F0.004694835680751174
s(S'wp'
p1763
S'np'
p1764
tp1765
F0.002306805074971165
s(g2
g5
tp1766
F0.05461967085655047
s(S'dt+m'
p1767
g56
tp1768
F0.14285714285714285
s(g26
S'ppss+be'
p1769
tp1770
F6.486346241162354e-05
s(g52
S'hvz'
p1771
tp1772
F1.6772613676389193e-05
s(g65
S'cd'
p1773
tp1774
F0.00047961630695443646
s(S'vbz'
p1775
S'nps'
p1776
tp1777
F0.012987012987012988
s(g52
S'dti'
p1778
tp1779
F8.386306838194597e-06
s(g167
S'nns'
p1780
tp1781
F0.0009140767824497258
s(g292
g74
tp1782
F0.034482758620689655
s(g716
g83
tp1783
F0.010964912280701754
s(g2
S'ppss+be'
p1784
tp1785
F5.3993348019523996e-05
s(g15
S'hvd'
p1786
tp1787
F2.1425089851470566e-05
s(g2
S'wrb+be'
p1788
tp1789
F1.0798669603904798e-05
s(S'vb'
p1790
S'vb+pp'
p1791
tp1792
F4.682524817381532e-05
s(g65
g43
tp1793
F0.04460431654676259
s(g2
S'np$'
p1794
tp1795
F0.00024836940088981035
s(g2
g49
tp1796
F0.005453328149971923
s(g32
S'pps+m'
p1797
tp1798
F0.0004606936203147459
s(g86
S'pps+hv'
p1799
tp1800
F3.682789098944267e-05
s(g338
S'nn'
p1801
tp1802
F0.21296296296296297
s(g2
S'np'
p1803
tp1804
F0.009006090449656601
s(S'wr'
p1805
S'jj'
p1806
tp1807
F0.0045600130286086536
s(g223
g74
tp1808
F0.03616042077580539
s(g979
S'vb'
p1809
tp1810
F0.037337662337662336
s(g83
g19
tp1811
F0.14084507042253522
s(S'nn'
p1812
S'doz'
p1813
tp1814
F3.447800303406427e-05
s(g52
S'np$'
p1815
tp1816
F0.00012579460257291893
s(g460
S'vbn'
p1817
tp1818
F0.02857142857142857
s(g15
S'wps+be'
p1819
tp1820
F5.356272462867641e-06
s(S'jj'
p1821
S'nps'
p1822
tp1823
F0.0008984725965858042
s(g26
g32
tp1824
F0.003048582733346306
s(S'vbn'
p1825
S'at'
p1826
tp1827
F0.0033783783783783786
s(S'pps+be'
p1828
g32
tp1829
F0.0006341154090044388
s(g86
S'pps+be'
p1830
tp1831
F0.0002332433095998036
s(S'pps+m'
p1832
S'be'
p1833
tp1834
F0.003246753246753247
s(S'ab'
p1835
g65
tp1836
F0.014913276057707894
s(g167
g86
tp1837
F0.033820840950639856
s(g49
g38
tp1838
F0.0015712129147539974
s(S'be'
p1839
g50
tp1840
F0.00980392156862745
s(S'pp'
p1841
S'nps'
p1842
tp1843
F5.642658498246745e-05
s(g307
g15
tp1844
F0.12
s(g233
g56
tp1845
F0.04267589388696655
s(g330
S'wd'
p1846
tp1847
F0.0010395010395010396
s(g26
S'bez'
p1848
tp1849
F6.486346241162354e-05
s(S'2/c'
p1850
g2
tp1851
F0.5428571428571428
s(S'ab'
p1852
S'dt'
p1853
tp1854
F0.00518722645485492
s(g2
S'dt+be'
p1855
tp1856
F5.3993348019523996e-05
s(S'rb'
p1857
S'wp'
p1858
tp1859
F0.0018927444794952682
s(S'nns'
p1860
g83
tp1861
F0.002079002079002079
s(g2
S'in'
p1862
tp1863
F0.0014362230573193382
s(S'vb'
p1864
S'pp$'
p1865
tp1866
F9.365049634763064e-05
s(g38
S'pn'
p1867
tp1868
F0.001091703056768559
s(g172
S'nn'
p1869
tp1870
F0.21875
s(g15
S'l/hr/n'
p1871
tp1872
F1.0712544925735283e-05
s(g220
S'dt+be'
p1873
tp1874
F0.0014124293785310734
s(g86
g167
tp1875
F0.001387183893935674
s(g32
S'pn+be'
p1876
tp1877
F7.371097925035935e-05
s(S'dt'
p1878
g26
tp1879
F0.0005037420840529648
s(S'bed'
p1880
g40
tp1881
F0.017977528089887642
s(g10
S'be'
p1882
tp1883
F0.023255813953488372
s(g86
S'jjs'
p1884
tp1885
F1.2275963663147557e-05
s(S'pps+be'
p1886
g4
tp1887
F0.0063411540900443885
s(g928
g19
tp1888
F0.0949367088607595
s(g38
g2
tp1889
F0.14017467248908297
s(g698
g74
tp1890
F0.1323529411764706
s(g238
g167
tp1891
F0.00129680661371373
s(g74
S'dt'
p1892
tp1893
F0.005066247959965039
s(g61
g5
tp1894
F0.04742371905584341
s(g4
g2
tp1895
F0.10321100917431193
s(g167
g38
tp1896
F0.003656307129798903
s(S'wr'
p1897
S'ppss+be'
p1898
tp1899
F0.00038000108571738776
s(S'nn'
p1900
g83
tp1901
F0.004344228382292098
s(S'ab'
p1902
S'pp$'
p1903
tp1904
F0.0003242016534284325
s(g1300
S'nn'
p1905
tp1906
F0.04395604395604396
s(S'jjt'
p1907
g19
tp1908
F0.2
s(S'wr'
p1909
S'np$'
p1910
tp1911
F5.428586938819825e-05
s(g1450
g4
tp1912
F0.006036217303822937
s(S'pp'
p1913
S'md+t'
p1914
tp1915
F1.612188142356213e-05
s(g86
S'rb'
p1916
tp1917
F0.0012521482936410507
s(g74
g49
tp1918
F0.009451839705461493
s(g383
g19
tp1919
F0.056338028169014086
s(g189
S'vbn'
p1920
tp1921
F0.0011534025374855825
s(S'wr'
p1922
S'np'
p1923
tp1924
F0.0057543021551490145
s(g32
g74
tp1925
F0.04264180149633288
s(g15
S'jj'
p1926
tp1927
F0.00848969185364521
s(g2
S'jj'
p1928
tp1929
F0.006792363180856118
s(g26
g86
tp1930
F0.03340468314198612
s(g86
S'doz'
p1931
tp1932
F3.682789098944267e-05
s(g1350
S'in'
p1933
tp1934
F0.1111111111111111
s(g38
g43
tp1935
F0.053711790393013104
s(g300
g2
tp1936
F0.14165917939502845
s(g1288
g86
tp1937
F0.14285714285714285
s(S'ab'
p1938
g67
tp1939
F0.00648403306856865
s(S'nps'
p1940
g119
tp1941
F0.02857142857142857
s(g167
g167
tp1942
F0.0009140767824497258
s(g74
g5
tp1943
F0.04312885286223673
s(S'wr'
p1944
S'fw'
p1945
tp1946
F0.000434286955105586
s(g52
S'rbr'
p1947
tp1948
F8.386306838194597e-06
s(g24
S'ab'
p1949
tp1950
F0.008032128514056224
s(g262
g19
tp1951
F0.06905495218025612
s(S'dt+be'
p1952
S'jjr'
p1953
tp1954
F0.002506265664160401
s(S'at'
p1955
S'wp'
p1956
tp1957
F0.0017777777777777779
s(S'pps+be'
p1958
S'dt'
p1959
tp1960
F0.003804692454026633
s(S'pp'
p1961
S'wp'
p1962
tp1963
F0.004739833138527266
s(g330
g2
tp1964
F0.06340956340956341
s(S'np'
p1965
S'nn$'
p1966
tp1967
F0.0010083549409392106
s(g77
g2
tp1968
F0.14583333333333334
s(S'jjr'
p1969
S'cc'
p1970
tp1971
F0.02631578947368421
s(g86
g15
tp1972
F0.09659955806530812
s(g167
S'pps+be'
p1973
tp1974
F0.0009140767824497258
s(g1207
g38
tp1975
F0.0008619500758516067
s(g223
g50
tp1976
F0.008547008547008548
s(g1392
S'wps'
p1977
tp1978
F3.447800303406427e-05
s(g144
g32
tp1979
F0.004807692307692308
s(g4
S'np'
p1980
tp1981
F0.006880733944954129
s(g214
S'nn'
p1982
tp1983
F0.029169308814204185
s(g52
S'ppss'
p1984
tp1985
F0.00012579460257291893
s(g636
S'nn$'
p1986
tp1987
F0.002207505518763797
s(S'wps+be'
p1988
g86
tp1989
F0.14285714285714285
s(g86
S'ppss+bez'
p1990
tp1991
F1.2275963663147557e-05
s(g790
S'cd'
p1992
tp1993
F0.017671517671517672
s(g74
S'dt+be'
p1994
tp1995
F0.0001392251347776652
s(g846
g49
tp1996
F0.01161995898838004
s(g52
S'dt+be'
p1997
tp1998
F2.5158920514583786e-05
s(S'dt+be'
p1999
g86
tp2000
F0.03508771929824561
s(g74
S'ab'
p2001
tp2002
F0.004052998367972031
s(S'ex+be'
p2003
S'wp'
p2004
tp2005
F0.01609657947686117
s(g1115
S'hv'
p2006
tp2007
F0.00565439249758654
s(S'ex+be'
p2008
S'hv'
p2009
tp2010
F0.002012072434607646
s(g49
S'nns$'
p2011
tp2012
F3.080809636772544e-05
s(g65
g4
tp2013
F0.019184652278177457
s(S'np$'
p2014
S'rb'
p2015
tp2016
F0.011494252873563218
s(g223
S'dt'
p2017
tp2018
F0.0039447731755424065
s(S'vbn'
p2019
S'hv'
p2020
tp2021
F0.0033783783783783786
s(S'dt'
p2022
g646
tp2023
F0.00014392630972941855
s(S'in'
p2024
g15
tp2025
F0.003257328990228013
s(g1080
S'rb'
p2026
tp2027
F0.2
s(S'ab'
p2028
g50
tp2029
F0.008753444642567677
s(S'bez'
p2030
S'wr'
p2031
tp2032
F0.010638297872340425
s(S'wq'
p2033
S'be'
p2034
tp2035
F0.0199468085106383
s(g32
S'pn+hv'
p2036
tp2037
F1.8427744812589837e-05
s(S'at'
p2038
S'cd'
p2039
tp2040
F0.005333333333333333
s(g26
g67
tp2041
F0.0024648115716416944
s(S'vb+pp'
p2042
g52
tp2043
F0.0703125
s(g52
S'in'
p2044
tp2045
F0.002138508243739622
s(S'od'
p2046
S'vb'
p2047
tp2048
F0.047619047619047616
s(S'dt'
p2049
S'ab'
p2050
tp2051
F0.0030224525043177895
s(S'dt+be'
p2052
g38
tp2053
F0.010025062656641603
s(g197
g5
tp2054
F0.06841046277665996
s(S'wd'
p2055
g40
tp2056
F0.01764095468695953
s(g2
g83
tp2057
F0.005161764070666494
s(S'pp'
p2058
S'ab'
p2059
tp2060
F0.0031357059368828342
s(g2
S'fw'
p2061
tp2062
F0.0007775042114811456
s(g56
S'be'
p2063
tp2064
F0.007548988114359139
s(S'dt'
p2065
S'jjr'
p2066
tp2067
F0.00014392630972941855
s(g577
S'be'
p2068
tp2069
F0.02027027027027027
s(g680
g19
tp2070
F0.16666666666666666
s(S'pps+be'
p2071
g19
tp2072
F0.07799619530754598
s(g118
S'to'
p2073
tp2074
F0.0008984725965858042
s(S'nns'
p2075
S'ber'
p2076
tp2077
F0.0010395010395010396
s(g74
S'fw'
p2078
tp2079
F0.000696125673888326
s(g15
S'nr$'
p2080
tp2081
F1.0712544925735283e-05
s(g2046
g74
tp2082
F0.047619047619047616
s(S'np'
p2083
S'pps'
p2084
tp2085
F0.0011524056467876692
s(g50
S'pp'
p2086
tp2087
F0.03417999372844152
s(g1115
g40
tp2088
F0.011584609019445594
s(S'wr'
p2089
S'pps+m'
p2090
tp2091
F5.428586938819825e-05
s(g40
S'nn'
p2092
tp2093
F0.06224141032559813
s(S'pps'
p2094
S'at'
p2095
tp2096
F0.00029811257476104416
s(g83
S'jj'
p2097
tp2098
F0.01056338028169014
s(g50
g86
tp2099
F0.04750705550329257
s(g267
g65
tp2100
F0.013529073114565342
s(g531
S'bed'
p2101
tp2102
F0.010694316269475056
s(g262
g2
tp2103
F0.14913276057707894
s(g1625
S'in'
p2104
tp2105
F0.009259259259259259
s(g49
S'wq'
p2106
tp2107
F6.161619273545088e-05
s(g1625
g86
tp2108
F0.013888888888888888
s(S'in'
p2109
S'rb'
p2110
tp2111
F0.003257328990228013
s(S'wq'
p2112
g5
tp2113
F0.05585106382978723
s(g26
S'ppss'
p2114
tp2115
F6.486346241162354e-05
s(S'at'
p2116
S'cc'
p2117
tp2118
F0.010666666666666666
s(S'cd'
p2119
g2
tp2120
F0.011037527593818985
s(S'ap'
p2121
S'cs'
p2122
tp2123
F0.01098901098901099
s(g74
S'wq'
p2124
tp2125
F0.0002475113507158492
s(S'pp'
p2126
g38
tp2127
F0.00249889162065213
s(g4
S'nn'
p2128
tp2129
F0.07568807339449542
s(g803
S'nn'
p2130
tp2131
F0.07216940363007779
s(g125
S'np'
p2132
tp2133
F0.1511627906976744
s(g43
S'4/c'
p2134
tp2135
F9.979541939024999e-05
s(g572
g43
tp2136
F0.2
s(S'do'
p2137
g67
tp2138
F0.008012820512820512
s(S'np'
p2139
S'np$'
p2140
tp2141
F0.00014405070584845865
s(g811
g74
tp2142
F0.08
s(g56
S'ppss+h'
p2143
tp2144
F0.00024092515258592996
s(g292
S'wrb'
p2145
tp2146
F0.011494252873563218
s(S'rb'
p2147
g223
tp2148
F0.0006309148264984228
s(g43
S'bedz'
p2149
tp2150
F9.979541939024999e-05
s(g74
S'at'
p2151
tp2152
F0.0006419825659192339
s(g38
g4
tp2153
F0.009170305676855894
s(g50
g40
tp2154
F0.01317027281279398
s(g86
S'wrb+i'
p2155
tp2156
F1.2275963663147557e-05
s(S'ab'
p2157
S'at'
p2158
tp2159
F0.0003242016534284325
s(S'pps'
p2160
S'fw'
p2161
tp2162
F0.0011179221553539154
s(g223
g56
tp2163
F0.045364891518737675
s(S'do'
p2164
S'jj'
p2165
tp2166
F0.004807692307692308
s(S'np'
p2167
S'vbd'
p2168
tp2169
F0.00014405070584845865
s(g330
g50
tp2170
F0.006237006237006237
s(g52
S'ni'
p2171
tp2172
F5.031784102916757e-05
s(S'dt'
p2173
S'wq'
p2174
tp2175
F7.196315486470927e-05
s(g86
S'nn$'
p2176
tp2177
F0.0003191750552418365
s(g492
g86
tp2178
F0.002207505518763797
s(g1283
g19
tp2179
F0.17263843648208468
s(g365
g43
tp2180
F0.07407407407407407
s(g77
g56
tp2181
F0.10416666666666667
s(g1850
g74
tp2182
F0.11428571428571428
s(g2126
g65
tp2183
F0.01164805932852364
s(g74
g50
tp2184
F0.009165654706196291
s(S'dt'
p2185
S'at'
p2186
tp2187
F0.0007915947035118019
s(g50
S'in'
p2188
tp2189
F0.0007839448102853559
s(S'ql'
p2190
S'cc'
p2191
tp2192
F0.04
s(g2
S'vbz'
p2193
tp2194
F1.0798669603904798e-05
s(S'wd'
p2195
S'in'
p2196
tp2197
F0.00017295053614666206
s(S'pp'
p2198
S'at'
p2199
tp2200
F0.0003466204506065858
s(g554
S'vb'
p2201
tp2202
F0.032
s(g32
S'vb+t'
p2203
tp2204
F1.8427744812589837e-05
s(g50
g56
tp2205
F0.028692380056444027
s(g380
S'bez'
p2206
tp2207
F0.0012618296529968455
s(g56
S'ni'
p2208
tp2209
F0.0007227754577577899
s(g1214
g2
tp2210
F0.17587563214085034
s(g1225
S'vb'
p2211
tp2212
F0.038461538461538464
s(g2
S'bed'
p2213
tp2214
F0.010183145436482225
s(S'nns'
p2215
g19
tp2216
F0.20686070686070687
s(S'vb+pp'
p2217
S'pps'
p2218
tp2219
F0.015625
s(g65
S'ppss+be'
p2220
tp2221
F0.00047961630695443646
s(g52
S'pps'
p2222
tp2223
F0.00748058569966958
s(S'vbn'
p2224
S'vb'
p2225
tp2226
F0.02027027027027027
s(S'pps'
p2227
S'ab'
p2228
tp2229
F0.0045462167651059236
s(g935
g65
tp2230
F0.019138755980861243
s(S'pps+m'
p2231
g52
tp2232
F0.09415584415584416
s(g40
g52
tp2233
F0.1097319661809678
s(S'be'
p2234
S'cc'
p2235
tp2236
F0.000980392156862745
s(S'vb+pp'
p2237
S'vb'
p2238
tp2239
F0.0390625
s(g71
S'vbn'
p2240
tp2241
F0.08421052631578947
s(g43
S'destination/n'
p2242
tp2243
F4.9897709695124994e-05
s(g56
S'hv'
p2244
tp2245
F0.00128493414712496
s(g536
g558
tp2246
F0.01098901098901099
s(g15
S'nns$'
p2247
tp2248
F7.498781448014697e-05
s(S'hv'
p2249
S'rb'
p2250
tp2251
F0.000683526999316473
s(S'od'
p2252
S'nn'
p2253
tp2254
F0.19047619047619047
s(S'be'
p2255
S'pp'
p2256
tp2257
F0.04068627450980392
s(g52
S'wps+be'
p2258
tp2259
F8.386306838194597e-06
s(g680
S'pps'
p2260
tp2261
F0.16666666666666666
s(S'bed'
p2262
S'pps'
p2263
tp2264
F0.01348314606741573
s(g1341
g65
tp2265
F0.010784313725490196
s(g15
g223
tp2266
F9.641290433161754e-05
s(g52
S'od'
p2267
tp2268
F0.0002012713641166703
s(S'vb+pp'
p2269
g15
tp2270
F0.0703125
s(g4
g43
tp2271
F0.08027522935779817
s(g50
S'wq'
p2272
tp2273
F0.00015678896205707118
s(g15
S'bez'
p2274
tp2275
F3.749390724007349e-05
s(g1195
g52
tp2276
F0.15789473684210525
s(g52
S'/i'
p2277
tp2278
F1.6772613676389193e-05
s(g1000
g86
tp2279
F0.05032467532467533
s(g2
S"8''/n"
p2280
tp2281
F1.0798669603904798e-05
s(g2014
g86
tp2282
F0.011494252873563218
s(g83
S'cd'
p2283
tp2284
F0.002347417840375587
s(S'pp'
p2285
S'rp'
p2286
tp2287
F1.612188142356213e-05
s(g393
S'np'
p2288
tp2289
F0.0016025641025641025
s(g2190
S'jj'
p2290
tp2291
F0.04
s(S'hv'
p2292
g167
tp2293
F0.002050580997949419
s(g2
S'pp'
p2294
tp2295
F0.036661483305256794
s(g38
S'od'
p2296
tp2297
F0.0004366812227074236
s(g52
S'wr'
p2298
tp2299
F0.0023733248352090707
s(g1204
g50
tp2300
F0.006309148264984227
s(g330
g4
tp2301
F0.004158004158004158
s(g40
S'rb'
p2302
tp2303
F0.0005396654074473826
s(g2
S'cc'
p2304
tp2305
F0.00041034944494838235
s(S'rb'
p2306
g40
tp2307
F0.010094637223974764
s(S'pp'
p2308
S'bedz'
p2309
tp2310
F0.00036274233203014794
s(S'pp'
p2311
S'cc'
p2312
tp2313
F0.00014509693281205917
s(g2
S'or/c'
p2314
tp2315
F4.3194678415619194e-05
s(g15
S'or/c'
p2316
tp2317
F5.356272462867641e-06
s(g1631
S'vbg'
p2318
tp2319
F0.02197802197802198
s(g2269
S'wps+be'
p2320
tp2321
F0.0078125
s(g83
S'hvz'
p2322
tp2323
F0.0011737089201877935
s(g1310
g43
tp2324
F0.10810810810810811
s(g1214
g52
tp2325
F0.11622026596740963
s(g52
g15
tp2326
F0.10565907985441371
s(S'be'
p2327
S'bed'
p2328
tp2329
F0.0024509803921568627
s(g32
S'to'
p2330
tp2331
F3.685548962517967e-05
s(g49
S'wps+be'
p2332
tp2333
F3.080809636772544e-05
s(g2231
g38
tp2334
F0.003246753246753247
s(g49
g2
tp2335
F0.17982685849841337
s(g197
S'vb'
p2336
tp2337
F0.060362173038229376
s(S'nn'
p2338
S'jjr'
p2339
tp2340
F6.895600606812854e-05
s(g38
S'in'
p2341
tp2342
F0.0006550218340611354
s(S'rb'
p2343
S'do'
p2344
tp2345
F0.0006309148264984228
s(g15
S'wrb+bez'
p2346
tp2347
F5.356272462867641e-06
s(S'at'
p2348
S'ppl'
p2349
tp2350
F0.0008888888888888889
s(g197
g86
tp2351
F0.06841046277665996
s(g40
g5
tp2352
F0.04029501708940457
s(g40
g19
tp2353
F0.07537326857348443
s(g378
g15
tp2354
F0.1
s(g83
S'ppl'
p2355
tp2356
F0.0011737089201877935
s(g74
g40
tp2357
F0.0136672673973408
s(S'pps+be'
p2358
S'pps'
p2359
tp2360
F0.017755231452124286
s(g38
g223
tp2361
F0.0002183406113537118
s(S'ab'
p2362
S'wp'
p2363
tp2364
F0.00518722645485492
s(S'np'
p2365
S'md'
p2366
tp2367
F0.000432152117545376
s(g49
S'do'
p2368
tp2369
F0.0018792938784312518
s(S'jj'
p2370
g26
tp2371
F0.0008984725965858042
s(g26
g15
tp2372
F0.10579230719335798
s(S'jj'
p2373
S'ap'
p2374
tp2375
F0.0005989817310572028
s(S'be'
p2376
g67
tp2377
F0.0024509803921568627
s(g125
g19
tp2378
F0.2558139534883721
s(g572
g5
tp2379
F0.1
s(g71
S'in'
p2380
tp2381
F0.1368421052631579
s(g83
S'nn'
p2382
tp2383
F0.04107981220657277
s(g40
S'do'
p2384
tp2385
F0.0012592192840438928
s(g15
S'ex+be'
p2386
tp2387
F5.356272462867641e-06
s(S'ppss+h'
p2388
S'md'
p2389
tp2390
F0.002824858757062147
s(S'pp$'
p2391
S'in'
p2392
tp2393
F0.012345679012345678
s(S'ap'
p2394
g74
tp2395
F0.01098901098901099
s(g1343
S'be'
p2396
tp2397
F0.01006036217303823
s(g56
S'wr'
p2398
tp2399
F0.0038548024413748794
s(S'to'
p2400
S'rp'
p2401
tp2402
F0.023255813953488372
s(g125
S'ppss'
p2403
tp2404
F0.005813953488372093
s(g52
S'50th/o'
p2405
tp2406
F8.386306838194597e-06
s(g2
S'/n'
p2407
tp2408
F1.0798669603904798e-05
s(S'np'
p2409
S'wr'
p2410
tp2411
F0.0027369634111207145
s(S'nn'
p2412
S'ap'
p2413
tp2414
F0.00027582402427251415
s(S'rb+be'
p2415
S'wd'
p2416
tp2417
F0.011627906976744186
s(g43
g38
tp2418
F0.0016466244199391249
s(S'nns'
p2419
S'wp'
p2420
tp2421
F0.0010395010395010396
s(g15
S'sq./ni'
p2422
tp2423
F5.356272462867641e-06
s(S'do'
p2424
S'ppss+hv'
p2425
tp2426
F0.0008012820512820513
s(S'nn'
p2427
g32
tp2428
F0.003896014342849262
s(g26
S'vbg'
p2429
tp2430
F0.00012972692482324707
s(g2
g15
tp2431
F0.08437000561530819
s(S'do'
p2432
g38
tp2433
F0.005608974358974359
s(S'wr'
p2434
S'cc'
p2435
tp2436
F0.0001085717387763965
s(g21
g2
tp2437
F0.11528822055137844
s(g2126
g15
tp2438
F0.08862198218532102
s(g533
g15
tp2439
F0.05405405405405406
s(g38
S'wq'
p2440
tp2441
F0.0002183406113537118
s(S'vb'
p2442
S'ppl'
p2443
tp2444
F0.0002341262408690766
s(S'vbg'
p2445
S'rb'
p2446
tp2447
F0.006944444444444444
s(S'np+bez'
p2448
S'nn'
p2449
tp2450
F0.08333333333333333
s(g15
S'pp'
p2451
tp2452
F0.02379791855252093
s(g1513
S'doz'
p2453
tp2454
F0.14736842105263157
s(S'hv'
p2455
S'at'
p2456
tp2457
F0.000683526999316473
s(g526
S'pps'
p2458
tp2459
F0.004629629629629629
s(g52
S'wd'
p2460
tp2461
F0.004453128931081331
s(g2
S'bedz'
p2462
tp2463
F7.559068722733359e-05
s(S'wdt'
p2464
S'be'
p2465
tp2466
F0.010526315789473684
s(S'wrb'
p2467
S'ap'
p2468
tp2469
F0.006756756756756757
s(g716
S'fw'
p2470
tp2471
F0.13596491228070176
s(g928
g5
tp2472
F0.0949367088607595
s(S'jj'
p2473
S'wpo'
p2474
tp2475
F0.0002994908655286014
s(g167
S'hv'
p2476
tp2477
F0.004570383912248629
s(g2126
S'pp'
p2478
tp2479
F0.049026641409052434
s(g756
g56
tp2480
F0.028169014084507043
s(g74
S'nns+m'
p2481
tp2482
F7.734729709870288e-06
s(g86
g43
tp2483
F0.05542597593911122
s(S'vbn'
p2484
g65
tp2485
F0.0033783783783783786
s(g52
S'pps+bez'
p2486
tp2487
F1.6772613676389193e-05
s(g26
g2
tp2488
F0.15949925407018226
s(g189
g4
tp2489
F0.008073817762399077
s(S'pps+hv'
p2490
S'bed'
p2491
tp2492
F0.0019083969465648854
s(S'nns'
p2493
S'md'
p2494
tp2495
F0.002079002079002079
s(S'pps'
p2496
S'nr'
p2497
tp2498
F0.0004471688621415662
s(S'wr'
p2499
S'hv'
p2500
tp2501
F0.00868573910211172
s(g56
S'fw'
p2502
tp2503
F0.0004818503051718599
s(S'wd'
p2504
g49
tp2505
F0.015565548253199585
s(S'be'
p2506
S'at'
p2507
tp2508
F0.0024509803921568627
s(g2
S'rb'
p2509
tp2510
F0.0010258736123709559
s(g67
S'vb'
p2511
tp2512
F0.09826589595375723
s(g167
S'vbg'
p2513
tp2514
F0.0009140767824497258
s(g378
S'nps'
p2515
tp2516
F0.02
s(g531
S'vb'
p2517
tp2518
F0.08490309972314207
s(S'ni'
p2519
g5
tp2520
F0.03389830508474576
s(S'nns'
p2521
S'rp'
p2522
tp2523
F0.002079002079002079
s(g289
S'hv'
p2524
tp2525
F0.09090909090909091
s(g15
S'nn$'
p2526
tp2527
F0.0004392143419551466
s(g56
S'ppo'
p2528
tp2529
F0.00024092515258592996
s(g52
S'pn'
p2530
tp2531
F0.00010902198889652975
s(g15
S'np$'
p2532
tp2533
F0.00012319426664595575
s(g32
S'ql'
p2534
tp2535
F0.00016584970331330853
s(S'wd'
p2536
S'dt'
p2537
tp2538
F0.00674507090971982
s(g49
S'vb'
p2539
tp2540
F0.07042730829662035
s(S'nn'
p2541
g49
tp2542
F0.005378568473314025
s(g43
S'pps'
p2543
tp2544
F0.0045406915822563745
s(S'pps'
p2545
g83
tp2546
F0.008868849099141063
s(g197
g52
tp2547
F0.11267605633802817
s(g223
S'jj'
p2548
tp2549
F0.0039447731755424065
s(g49
S'uh'
p2550
tp2551
F3.080809636772544e-05
s(g383
S'nn'
p2552
tp2553
F0.04627766599597585
s(g292
g52
tp2554
F0.13793103448275862
s(S'vbz'
p2555
g83
tp2556
F0.012987012987012988
s(g40
S'ql'
p2557
tp2558
F0.0003597769382982551
s(S'ppss+m'
p2559
g15
tp2560
F0.0732899022801303
s(g450
S'nn'
p2561
tp2562
F0.038461538461538464
s(S'dt'
p2563
S'cc'
p2564
tp2565
F7.196315486470927e-05
s(g43
S'dt'
p2566
tp2567
F0.0035427373883538745
s(g1474
g4
tp2568
F0.0043079228319910096
s(S'rb'
p2569
S'pp$'
p2570
tp2571
F0.0006309148264984228
s(g56
S'pp$'
p2572
tp2573
F0.00016061676839062
s(g24
S'pps'
p2574
tp2575
F0.024096385542168676
s(g32
S'rb+c'
p2576
tp2577
F3.685548962517967e-05
s(S'nn'
p2578
S'wrb'
p2579
tp2580
F0.0001034340091021928
s(g52
S'c/np'
p2581
tp2582
F8.386306838194597e-06
s(g223
S'bedz'
p2583
tp2584
F0.0006574621959237344
s(g1615
S'vbn'
p2585
tp2586
F0.02027027027027027
s(S'wd'
p2587
S'ber'
p2588
tp2589
F0.00017295053614666206
s(g1615
S'be'
p2590
tp2591
F0.013513513513513514
s(g50
S'do'
p2592
tp2593
F0.0014111006585136407
s(g38
S'ppss+m'
p2594
tp2595
F0.0002183406113537118
s(S'nn'
p2596
S'nps'
p2597
tp2598
F3.447800303406427e-05
s(S'ppss+be'
p2599
S'nr'
p2600
tp2601
F0.0017391304347826088
s(g83
S'at'
p2602
tp2603
F0.004694835680751174
s(g15
S'pps+be'
p2604
tp2605
F7.498781448014697e-05
s(g1940
g5
tp2606
F0.2857142857142857
s(g1195
S'ab'
p2607
tp2608
F0.05263157894736842
s(S'cd'
p2609
g5
tp2610
F0.4083885209713024
s(g1850
S'2/c'
p2611
tp2612
F0.08571428571428572
s(S'vbg'
p2613
g119
tp2614
F0.003472222222222222
s(g269
g43
tp2615
F0.041666666666666664
s(g1350
S'vbg'
p2616
tp2617
F0.1111111111111111
s(g2024
S'vb'
p2618
tp2619
F0.003257328990228013
s(S'np+hv'
p2620
g5
tp2621
F0.2
s(g891
S'ex+hv'
p2622
tp2623
F0.0008143322475570033
s(S'nn'
p2624
S'bedz'
p2625
tp2626
F3.447800303406427e-05
s(g50
g19
tp2627
F0.07651301348385074
s(S'nn'
p2628
S'cs'
p2629
tp2630
F0.00013791201213625708
s(g50
g5
tp2631
F0.04390090937597993
s(g74
S'pp'
p2632
tp2633
F0.04380950907670531
s(g83
S'dt'
p2634
tp2635
F0.002347417840375587
s(g122
S'nns'
p2636
tp2637
F0.1
s(g50
S'bez'
p2638
tp2639
F0.00015678896205707118
s(S'pps'
p2640
S'cd'
p2641
tp2642
F0.0004844329339866967
s(g43
S'pps+be'
p2643
tp2644
F4.9897709695124994e-05
s(g1153
S'cd'
p2645
tp2646
F0.010416666666666666
s(S'wr'
p2647
S'wp'
p2648
tp2649
F0.002442864122468921
s(g15
S"4''/n"
p2650
tp2651
F1.0712544925735283e-05
s(S'rb+be'
p2652
g5
tp2653
F0.08139534883720931
s(g86
S'ppo'
p2654
tp2655
F1.2275963663147557e-05
s(g32
S'vbg'
p2656
tp2657
F9.213872406294918e-05
s(g26
S'ab'
p2658
tp2659
F0.003048582733346306
s(g74
S'vbn'
p2660
tp2661
F0.0005569005391106608
s(g1082
g40
tp2662
F0.00868523510032944
s(g2
S'ppss+h'
p2663
tp2664
F7.559068722733359e-05
s(S'dt+be'
p2665
S'np'
p2666
tp2667
F0.005012531328320802
s(g837
S'nns'
p2668
tp2669
F0.125
s(g26
S'dt'
p2670
tp2671
F0.005383667380164753
s(g86
S'nns$'
p2672
tp2673
F3.682789098944267e-05
s(g32
S'bed'
p2674
tp2675
F0.004717502672022998
s(S'pp'
p2676
S'dt+be'
p2677
tp2678
F8.060940711781066e-05
s(g50
S'nns'
p2679
tp2680
F0.0020382565067419253
s(g572
g74
tp2681
F0.1
s(g83
S'in'
p2682
tp2683
F0.005868544600938967
s(g74
S'jjs'
p2684
tp2685
F2.3204189129610864e-05
s(g625
g2
tp2686
F0.14492753623188406
s(S'ppss+be'
p2687
S'do'
p2688
tp2689
F0.0052173913043478265
s(g2448
g5
tp2690
F0.041666666666666664
s(S'hv'
p2691
S'wr'
p2692
tp2693
F0.002050580997949419
s(g954
S'pps'
p2694
tp2695
F0.01619123921670921
s(g86
S'pn'
p2696
tp2697
F6.137981831573779e-05
s(g736
S'rb'
p2698
tp2699
F0.0017295053614666206
s(S'at'
p2700
S'rb'
p2701
tp2702
F0.0017777777777777779
s(g56
S'cc'
p2703
tp2704
F0.00016061676839062
s(g49
S'pp$'
p2705
tp2706
F0.00018484857820635263
s(S'rb'
p2707
g2
tp2708
F0.14384858044164037
s(g110
g83
tp2709
F0.007518796992481203
s(S'pp'
p2710
S'ppl'
p2711
tp2712
F0.00020958445850630767
s(S'do'
p2713
S'ab'
p2714
tp2715
F0.004006410256410256
s(g83
S"8''/n"
p2716
tp2717
F0.0011737089201877935
s(g32
S'fw'
p2718
tp2719
F0.0018612022260715733
s(g803
g19
tp2720
F0.09334485738980121
s(g40
S'pp$'
p2721
tp2722
F0.00017988846914912754
s(g67
S'nn'
p2723
tp2724
F0.07129094412331406
s(S'jj'
p2725
S'md'
p2726
tp2727
F0.0002994908655286014
s(g223
S'hvd'
p2728
tp2729
F0.0006574621959237344
s(g292
g19
tp2730
F0.10344827586206896
s(S'wr'
p2731
g40
tp2732
F0.015634330383801097
s(g26
S'nr'
p2733
tp2734
F0.00025945384964649415
s(g1000
g4
tp2735
F0.024350649350649352
s(g52
S'nr'
p2736
tp2737
F0.0005702688649972326
s(S'vb'
p2738
S'ppss+m'
p2739
tp2740
F0.00014047574452144597
s(g125
g56
tp2741
F0.0029069767441860465
s(g2126
g56
tp2742
F0.028858167748176212
s(S'wp'
p2743
g50
tp2744
F0.00461361014994233
s(g56
S'ppss'
p2745
tp2746
F8.030838419531e-05
s(g32
S'bem'
p2747
tp2748
F9.213872406294918e-05
s(g330
g86
tp2749
F0.010395010395010396
s(g52
S'bedz'
p2750
tp2751
F5.870414786736217e-05
s(g83
S'vbg'
p2752
tp2753
F0.002347417840375587
s(g554
g2
tp2754
F0.08088888888888889
s(g15
S'wr'
p2755
tp2756
F0.002442460243067644
s(g2
S'wp'
p2757
tp2758
F0.004557038572847825
s(S'ppss+m'
p2759
S'cc'
p2760
tp2761
F0.0008143322475570033
s(g52
g40
tp2762
F0.012193690142734942
s(g40
g56
tp2763
F0.07069616837560712
s(g38
g167
tp2764
F0.0008733624454148472
s(S'nns'
p2765
S'ab'
p2766
tp2767
F0.004158004158004158
s(g378
S'vb'
p2768
tp2769
F0.04
s(S'jjr'
p2770
S'nns'
p2771
tp2772
F0.18421052631578946
s(g43
S'do'
p2773
tp2774
F0.0010977496132927498
s(S'pps'
p2775
S'ppss+m'
p2776
tp2777
F0.0003540086825287399
s(g50
S'bed'
p2778
tp2779
F0.005644402634054563
s(g385
S'jj'
p2780
tp2781
F0.024691358024691357
s(S'jj'
p2782
S'do'
p2783
tp2784
F0.0002994908655286014
s(S'wr'
p2785
g86
tp2786
F0.03686010531458661
s(S'vb+pp'
p2787
g86
tp2788
F0.0625
s(g55
g2
tp2789
F0.13524731926668973
s(S'pps+m'
p2790
g32
tp2791
F0.003246753246753247
s(g2119
g43
tp2792
F0.01545253863134658
s(g533
g83
tp2793
F0.02702702702702703
s(g74
g56
tp2794
F0.03216100613364066
s(S'nn'
p2795
S'nn$'
p2796
tp2797
F0.0005516480485450283
s(g2126
S'jj'
p2798
tp2799
F0.005110636411269195
s(g52
S'nns$'
p2800
tp2801
F7.547676154375137e-05
s(g2569
S'uh'
p2802
tp2803
F0.0006309148264984228
s(g38
g56
tp2804
F0.03842794759825328
s(S'wq'
p2805
g43
tp2806
F0.05053191489361702
s(g2224
g15
tp2807
F0.037162162162162164
s(g4
S'do'
p2808
tp2809
F0.0022935779816513763
s(g65
S'vb'
p2810
tp2811
F0.0513189448441247
s(g32
S'ber'
p2812
tp2813
F0.00033169940662661706
s(g966
g52
tp2814
F0.0735573874445149
s(g15
S'ppss+m'
p2815
tp2816
F3.213763477720585e-05
s(g49
S'/i'
p2817
tp2818
F3.080809636772544e-05
s(g40
S'od'
p2819
tp2820
F0.0003597769382982551
s(S'pp'
p2821
S'md+h'
p2822
tp2823
F8.060940711781064e-06
s(g1153
S'jjr'
p2824
tp2825
F0.003472222222222222
s(S'ppss+h'
p2826
S'ppss+be'
p2827
tp2828
F0.002824858757062147
s(g83
g74
tp2829
F0.057511737089201875
s(g86
S'hv'
p2830
tp2831
F0.0070095752516572555
s(S'nn'
p2832
S'ber'
p2833
tp2834
F6.895600606812854e-05
s(g383
S'jj'
p2835
tp2836
F0.01006036217303823
s(S'at'
p2837
S'jjr'
p2838
tp2839
F0.0008888888888888889
s(g52
S'ppl'
p2840
tp2841
F0.0002348165914694487
s(S'wrb'
p2842
S'ppo'
p2843
tp2844
F0.006756756756756757
s(g65
g5
tp2845
F0.060431654676258995
s(g855
S'dt'
p2846
tp2847
F0.006514657980456026
s(g52
S'nps$'
p2848
tp2849
F8.386306838194597e-06
s(g118
S'vbn'
p2850
tp2851
F0.0020964360587002098
s(S'vbd'
p2852
S'nn'
p2853
tp2854
F0.2222222222222222
s(g378
g43
tp2855
F0.06
s(g15
S'fw'
p2856
tp2857
F0.001344424388179778
s(S'dt'
p2858
S'doz'
p2859
tp2860
F7.196315486470927e-05
s(g47
S'hv'
p2861
tp2862
F0.006578947368421052
s(g648
g67
tp2863
F0.006648936170212766
s(S'wdt+be'
p2864
g2
tp2865
F0.10989010989010989
s(g52
g558
tp2866
F8.386306838194597e-06
s(S'do'
p2867
g50
tp2868
F0.008012820512820512
s(g43
S'dt+bez'
p2869
tp2870
F4.9897709695124994e-05
s(g2126
g50
tp2871
F0.00855265809519971
s(g262
S'vb'
p2872
tp2873
F0.06792024639325661
s(g385
g5
tp2874
F0.08641975308641975
s(S'pps'
p2875
S'nns$'
p2876
tp2877
F1.863203592256526e-05
s(g83
S'be'
p2878
tp2879
F0.011737089201877934
s(g40
S'pp'
p2880
tp2881
F0.030221262817053427
s(g32
S'nn+be'
p2882
tp2883
F0.00018427744812589837
s(g2052
g52
tp2884
F0.06015037593984962
s(g1115
S'pp'
p2885
tp2886
F0.02116949386291546
s(g1010
g5
tp2887
F0.0651685393258427
s(g1058
g119
tp2888
F0.01098901098901099
s(g2
g86
tp2889
F0.034037406591507925
s(g988
S'jj'
p2890
tp2891
F0.0043859649122807015
s(g2419
S'hv'
p2892
tp2893
F0.002079002079002079
s(g256
g32
tp2894
F0.0056782334384858045
s(g52
g4
tp2895
F0.00529175961490079
s(g50
S'pps'
p2896
tp2897
F0.011132016306052053
s(S'np'
p2898
S'ql'
p2899
tp2900
F0.0005762028233938346
s(S'vbz'
p2901
S'vbg'
p2902
tp2903
F0.025974025974025976
s(g1040
S'vb'
p2904
tp2905
F0.02631578947368421
s(g32
g50
tp2906
F0.007463236649098883
s(g1195
S'wd'
p2907
tp2908
F0.05263157894736842
s(S'jj'
p2909
S'vbg'
p2910
tp2911
F0.0017969451931716084
s(S'at'
p2912
S'wrb'
p2913
tp2914
F0.0017777777777777779
s(g49
S'wrb'
p2915
tp2916
F3.080809636772544e-05
s(g32
g83
tp2917
F0.05461983562451627
s(S'nn'
p2918
S'pp$'
p2919
tp2920
F3.447800303406427e-05
s(g56
S'ppl'
p2921
tp2922
F0.00016061676839062
s(g233
g86
tp2923
F0.03344867358708189
s(g1755
g86
tp2924
F0.08333333333333333
s(S'pp'
p2925
g83
tp2926
F0.004828503486356858
s(g2224
S'pp'
p2927
tp2928
F0.016891891891891893
s(g4
S'vbn'
p2929
tp2930
F0.006880733944954129
s(S'ppss+m'
p2931
S'ppss+m'
p2932
tp2933
F0.0024429967426710096
s(S'wdt'
p2934
S'in'
p2935
tp2936
F0.010526315789473684
s(g15
S'np+be'
p2937
tp2938
F5.356272462867641e-06
s(g1137
S'nn'
p2939
tp2940
F0.2727272727272727
s(g1767
g43
tp2941
F0.14285714285714285
s(g2217
S'jj'
p2942
tp2943
F0.0078125
s(g906
g5
tp2944
F0.07142857142857142
s(g292
S'ber'
p2945
tp2946
F0.011494252873563218
s(g50
S'np'
p2947
tp2948
F0.004703668861712135
s(g32
S'ppss+m'
p2949
tp2950
F0.003261710831828401
s(g26
S'ql'
p2951
tp2952
F0.0001945903872348706
s(g307
g2
tp2953
F0.16
s(g15
g5
tp2954
F0.045608660021317964
s(g208
S'pp'
p2955
tp2956
F0.029411764705882353
s(S'dts+be'
p2957
g83
tp2958
F0.3333333333333333
s(g554
g56
tp2959
F0.009777777777777778
s(g15
S'vbn'
p2960
tp2961
F0.0007873720520415432
s(g43
S'nns$'
p2962
tp2963
F4.9897709695124994e-05
s(g49
S'bed'
p2964
tp2965
F0.011768692812471117
s(g977
g67
tp2966
F0.010638297872340425
s(S'jjr'
p2967
S'in'
p2968
tp2969
F0.10526315789473684
s(g15
S'vbn+t'
p2970
tp2971
F5.356272462867641e-06
s(g233
g19
tp2972
F0.10726643598615918
s(S'pps+be'
p2973
S'wps+m'
p2974
tp2975
F0.0006341154090044388
s(g2448
S'bez'
p2976
tp2977
F0.041666666666666664
s(g32
S'wrb+be'
p2978
tp2979
F0.000110566468875539
s(S'vbz'
p2980
S'rb'
p2981
tp2982
F0.012987012987012988
s(g52
S'wrb'
p2983
tp2984
F1.6772613676389193e-05
s(S'pps'
p2985
g38
tp2986
F0.0029438616757653108
s(g1214
g86
tp2987
F0.03465068364862334
s(g2269
g43
tp2988
F0.046875
s(g1195
S'vbg+t'
p2989
tp2990
F0.05263157894736842
s(S'nns'
p2991
g67
tp2992
F0.0031185031185031187
s(g32
g2
tp2993
F0.12772269929606014
s(g378
g5
tp2994
F0.02
s(g56
S'dod'
p2995
tp2996
F0.00016061676839062
s(g460
g19
tp2997
F0.05714285714285714
s(g1115
g56
tp2998
F0.027341056406012965
s(g74
S'cd'
p2999
tp3000
F0.0005259616202711796
s(g49
S'md'
p3001
tp3002
F0.0006777781200899597
s(g32
S'od'
p3003
tp3004
F3.685548962517967e-05
s(g43
g65
tp3005
F0.011725961778354374
s(g65
S'wd'
p3006
tp3007
F0.004316546762589928
s(g86
S'wr'
p3008
tp3009
F0.0039037564448809233
s(S'nr'
p3010
g5
tp3011
F0.05737704918032787
s(S'dts'
p3012
S'cc'
p3013
tp3014
F0.08333333333333333
s(g32
S'nn$'
p3015
tp3016
F0.00020270519293848818
s(g906
g19
tp3017
F0.07142857142857142
s(g56
S"32''/n"
p3018
tp3019
F8.030838419531e-05
s(g526
S'wd'
p3020
tp3021
F0.004629629629629629
s(S'nn'
p3022
S'wdt'
p3023
tp3024
F3.447800303406427e-05
s(S'jj'
p3025
g125
tp3026
F0.0011979634621144056
s(S'pps+be'
p3027
S'np'
p3028
tp3029
F0.0031705770450221942
s(g327
S'jj'
p3030
tp3031
F0.013513513513513514
s(g15
S'vbg'
p3032
tp3033
F0.00021425089851470565
s(g2
S'vbg'
p3034
tp3035
F0.00011878536564295279
s(S'pp$'
p3036
S'wp'
p3037
tp3038
F0.012345679012345678
s(g223
S'hv'
p3039
tp3040
F0.007889546351084813
s(S'ap'
p3041
S'nn'
p3042
tp3043
F0.2087912087912088
s(g40
g167
tp3044
F0.002698327037236913
s(g38
S'jjs'
p3045
tp3046
F0.0002183406113537118
s(g49
S'od'
p3047
tp3048
F0.00021565667457407807
s(g860
S'at'
p3049
tp3050
F0.05263157894736842
s(g2559
S'do'
p3051
tp3052
F0.003257328990228013
s(g86
g26
tp3053
F0.002467468696292659
s(g1210
g74
tp3054
F0.07377049180327869
s(g83
S'wd'
p3055
tp3056
F0.004694835680751174
s(g107
g49
tp3057
F0.009615384615384616
s(g43
S'nr'
p3058
tp3059
F0.00039918167756099995
s(g43
S'od'
p3060
tp3061
F4.9897709695124994e-05
s(g1350
g19
tp3062
F0.16666666666666666
s(S'rb'
p3063
S'cwt/nn'
p3064
tp3065
F0.0006309148264984228
s(g133
g32
tp3066
F0.0026595744680851063
s(g32
S'nps'
p3067
tp3068
F7.371097925035935e-05
s(g32
g43
tp3069
F0.03352006781410091
s(g2292
g32
tp3070
F0.005468215994531784
s(g74
S'np$'
p3071
tp3072
F6.18778376789623e-05
s(g52
S'md'
p3073
tp3074
F0.00034383858036597843
s(g56
g43
tp3075
F0.0418406681657565
s(g628
S'be'
p3076
tp3077
F0.0211864406779661
s(g634
g43
tp3078
F0.026058631921824105
s(g107
g5
tp3079
F0.07291666666666667
s(g473
S'wdt'
p3080
tp3081
F0.003257328990228013
s(g391
g56
tp3082
F0.04
s(S'dti'
p3083
S'jj'
p3084
tp3085
F0.2
s(g43
S'wp'
p3086
tp3087
F0.0035926350980489997
s(g32
S'pn'
p3088
tp3089
F5.52832344377695e-05
s(g49
S'rb'
p3090
tp3091
F0.0014479805292830956
s(g40
g65
tp3092
F0.012592192840438927
s(g86
S'ni'
p3093
tp3094
F0.0001718634912840658
s(g24
S'bed'
p3095
tp3096
F0.01606425702811245
s(S'rb'
p3097
S'ppss+hv'
p3098
tp3099
F0.0006309148264984228
s(g2
S'vbn'
p3100
tp3101
F0.00045354412336400153
s(g492
S'pp'
p3102
tp3103
F0.002207505518763797
s(g15
S'day/1,000/n'
p3104
tp3105
F5.356272462867641e-06
s(g15
S'hvz'
p3106
tp3107
F5.356272462867641e-06
s(S'wrb+be'
p3108
S'pp'
p3109
tp3110
F0.04
s(g711
g2
tp3111
F0.16666666666666666
s(S'wp'
p3112
S'nn+be'
p3113
tp3114
F0.0011534025374855825
s(S'nns'
p3115
S'do'
p3116
tp3117
F0.002079002079002079
s(S'wr'
p3118
S'pn'
p3119
tp3120
F5.428586938819825e-05
s(S'pps'
p3121
S'bedz'
p3122
tp3123
F0.00018632035922565258
s(g3012
S'at'
p3124
tp3125
F0.16666666666666666
s(S'uh'
p3126
g119
tp3127
F0.25
s(S'hv'
p3128
g4
tp3129
F0.007518796992481203
s(g21
g40
tp3130
F0.020050125313283207
s(S'vb'
p3131
S'nns$'
p3132
tp3133
F0.00018730099269526128
s(g696
S'nr'
p3134
tp3135
F0.0016233766233766235
s(S'pp'
p3136
g125
tp3137
F1.612188142356213e-05
s(g15
S'ppss+hv'
p3138
tp3139
F2.1425089851470566e-05
s(g43
S'vb'
p3140
tp3141
F0.06451773863579661
s(g1300
g65
tp3142
F0.01098901098901099
s(S'be'
p3143
S'do'
p3144
tp3145
F0.0014705882352941176
s(S'np'
p3146
S'bedz'
p3147
tp3148
F0.00014405070584845865
s(g4
g19
tp3149
F0.05504587155963303
s(g67
g49
tp3150
F0.0038535645472061657
s(g425
S'nns'
p3151
tp3152
F0.3333333333333333
s(S'vb'
p3153
S'dod'
p3154
tp3155
F0.00018730099269526128
s(S'pp'
p3156
S'wdt+be'
p3157
tp3158
F8.060940711781064e-06
s(g5
g5
tp3159
F1.0
s(g2370
S'ppss+be'
p3160
tp3161
F0.0005989817310572028
s(S'vb'
p3162
S'jjs'
p3163
tp3164
F4.682524817381532e-05
s(g40
S'bed'
p3165
tp3166
F0.006835761827666847
s(S'ab'
p3167
S'cd'
p3168
tp3169
F0.0011347057869995137
s(g1427
S'vb'
p3170
tp3171
F0.056381874783811826
s(S'nns'
p3172
S'nns'
p3173
tp3174
F0.04677754677754678
s(g2224
g52
tp3175
F0.033783783783783786
s(g86
S'nn'
p3176
tp3177
F0.058605450527866434
s(g1137
S'cc'
p3178
tp3179
F0.09090909090909091
s(g122
S'md'
p3180
tp3181
F0.1
s(S'pp'
p3182
S'md'
p3183
tp3184
F0.0008222159526016686
s(g86
S'ppss+ber'
p3185
tp3186
F1.2275963663147557e-05
s(S'wr'
p3187
S'wps+bez'
p3188
tp3189
F5.428586938819825e-05
s(g26
S'wr'
p3190
tp3191
F0.004670169293636894
s(g2909
S'in'
p3192
tp3193
F0.009883198562443846
s(g2262
g74
tp3194
F0.04044943820224719
s(g49
g4
tp3195
F0.006962629779105949
s(g65
S'be'
p3196
tp3197
F0.009592326139088728
s(S'pps'
p3198
g67
tp3199
F0.006539844608820406
s(g52
S'rb'
p3200
tp3201
F0.0009476526727159894
s(g52
S'jjt'
p3202
tp3203
F1.6772613676389193e-05
s(g52
S'at'
p3204
tp3205
F0.0011069925026416867
s(g368
g74
tp3206
F0.06782061075813754
s(g2
S'hvd'
p3207
tp3208
F8.638935683123839e-05
s(g726
g4
tp3209
F0.0078125
s(g15
S'8'
p3210
tp3211
F1.0712544925735283e-05
s(g1907
S'nn'
p3212
tp3213
F0.2
s(g74
S'cs'
p3214
tp3215
F7.734729709870288e-06
s(g38
g38
tp3216
F0.00480349344978166
s(g3126
S'np'
p3217
tp3218
F0.5
s(S'jjr'
p3219
S'jj'
p3220
tp3221
F0.02631578947368421
s(g2707
S'vb'
p3222
tp3223
F0.06750788643533123
s(g345
g43
tp3224
F0.03244274809160305
s(g49
S'nn+be'
p3225
tp3226
F9.242428910317632e-05
s(S'vbg'
p3227
g52
tp3228
F0.03125
s(g43
S'cc'
p3229
tp3230
F0.000149693129085375
s(g125
S'at'
p3231
tp3232
F0.023255813953488372
s(g2231
S'pp'
p3233
tp3234
F0.060064935064935064
s(g2119
g15
tp3235
F0.008830022075055188
s(g192
g52
tp3236
F0.09090909090909091
s(g167
S'nn'
p3237
tp3238
F0.055758683729433274
s(g74
S'wp'
p3239
tp3240
F0.00400658998971281
s(g74
S'md'
p3241
tp3242
F0.0010519232405423592
s(S'pp$'
p3243
S'wd'
p3244
tp3245
F0.012345679012345678
s(S'wq'
p3246
S'bed'
p3247
tp3248
F0.006648936170212766
s(g56
S"8''/n"
p3249
tp3250
F0.00032123353678124
s(g223
S'bed'
p3251
tp3252
F0.005259697567389875
s(g2707
g86
tp3253
F0.032176656151419555
s(g43
S'pps+m'
p3254
tp3255
F4.9897709695124994e-05
s(S'ppss+be'
p3256
S'be'
p3257
tp3258
F0.008695652173913044
s(g526
S'pp'
p3259
tp3260
F0.023148148148148147
s(g67
g67
tp3261
F0.0019267822736030828
s(g86
S'ex+be'
p3262
tp3263
F7.365578197888534e-05
s(g3041
S'at'
p3264
tp3265
F0.02197802197802198
s(g220
S'wd'
p3266
tp3267
F0.0014124293785310734
s(S'pps+hv'
p3268
S'dt'
p3269
tp3270
F0.0019083969465648854
s(g52
S'cs'
p3271
tp3272
F2.5158920514583786e-05
s(S'at'
p3273
S'ap'
p3274
tp3275
F0.0008888888888888889
s(S'nns'
p3276
S'vbd'
p3277
tp3278
F0.0010395010395010396
s(g32
S'ppss+hv'
p3279
tp3280
F0.00018427744812589837
s(g74
S'pp$'
p3281
tp3282
F0.00018563351303688692
s(g15
g558
tp3283
F5.356272462867641e-06
s(g267
S'wp'
p3284
tp3285
F0.007052389176741509
s(S'pps'
p3286
S'nps'
p3287
tp3288
F3.726407184513052e-05
s(g912
S'in'
p3289
tp3290
F0.06976744186046512
s(g2
g19
tp3291
F0.08295537989719666
s(g86
S'ppss'
p3292
tp3293
F6.137981831573779e-05
s(g38
S'vb'
p3294
tp3295
F0.0740174672489083
s(g15
g49
tp3296
F0.006411458138052567
s(g74
S'np'
p3297
tp3298
F0.006048558633118565
s(S'pp'
p3299
S'nr$'
p3300
tp3301
F8.060940711781064e-06
s(g391
g2
tp3302
F0.16
s(g2
S'ppl'
p3303
tp3304
F0.00011878536564295279
s(g110
g52
tp3305
F0.10116199589883801
s(g214
S'nns'
p3306
tp3307
F0.0006341154090044388
s(S'vb'
p3308
S'wdt+bez'
p3309
tp3310
F4.682524817381532e-05
s(S'jj'
p3311
S'rp'
p3312
tp3313
F0.0002994908655286014
s(g4
S'wr'
p3314
tp3315
F0.0045871559633027525
s(g2448
S'cc'
p3316
tp3317
F0.041666666666666664
s(g107
S'nn'
p3318
tp3319
F0.06169871794871795
s(g40
g49
tp3320
F0.011512862025544163
s(S'wr'
p3321
g50
tp3322
F0.005428586938819825
s(g860
g5
tp3323
F0.12631578947368421
s(g32
S'mbf/nn'
p3324
tp3325
F1.8427744812589837e-05
s(g43
S'nn'
p3326
tp3327
F0.09445636445287162
s(g52
S'rp'
p3328
tp3329
F2.5158920514583786e-05
s(g52
S'ab'
p3330
tp3331
F0.004000268361818822
s(g1195
S'dt'
p3332
tp3333
F0.05263157894736842
s(g3083
S'nns'
p3334
tp3335
F0.1
s(g1338
S'pps'
p3336
tp3337
F0.0010395010395010396
s(S'pp'
p3338
S'wps+hv'
p3339
tp3340
F1.612188142356213e-05
s(g3063
S'mbf/nn'
p3341
tp3342
F0.0006309148264984228
s(S'wd'
p3343
S'pps+hv'
p3344
tp3345
F0.0003459010722933241
s(g13
g56
tp3346
F0.08603896103896104
s(S'bed'
p3347
S'nn'
p3348
tp3349
F0.024719101123595506
s(g55
g52
tp3350
F0.09875475613974403
s(g1173
S'vb'
p3351
tp3352
F0.03571428571428571
s(g2126
g4
tp3353
F0.005650719438958527
s(g38
S'bedz'
p3354
tp3355
F0.0002183406113537118
s(S'od'
p3356
S'jj'
p3357
tp3358
F0.047619047619047616
s(g52
g38
tp3359
F0.0013669680146257191
s(g1283
S'nn'
p3360
tp3361
F0.18566775244299674
s(S'pp'
p3362
S'pps+hv'
p3363
tp3364
F9.673128854137278e-05
s(S'ppss+m'
p3365
S'hv'
p3366
tp3367
F0.0008143322475570033
s(g592
g38
tp3368
F0.0013297872340425532
s(S'dt'
p3369
S'do'
p3370
tp3371
F0.0011514104778353484
s(S'nn'
p3372
S'jjt'
p3373
tp3374
F3.447800303406427e-05
s(g1704
g646
tp3375
F4.682524817381532e-05
s(S'rb'
p3376
S'cd'
p3377
tp3378
F0.0018927444794952682
s(g2
S'np+hv'
p3379
tp3380
F2.1597339207809597e-05
s(g50
S'wp'
p3381
tp3382
F0.002508623392913139
s(g40
g4
tp3383
F0.009713977334052886
s(g378
g56
tp3384
F0.02
s(g56
S'ab'
p3385
tp3386
F0.00425634436235143
s(g15
S'nn+be'
p3387
tp3388
F3.749390724007349e-05
s(g52
S'pp$'
p3389
tp3390
F0.0002683618188222271
s(S'bed'
p3391
S'bed'
p3392
tp3393
F0.011235955056179775
s(S'pps+hv'
p3394
S'rb+c'
p3395
tp3396
F0.0019083969465648854
s(g625
g19
tp3397
F0.391304347826087
s(g1115
g5
tp3398
F0.05254447662391394
s(g2707
g19
tp3399
F0.08706624605678233
s(S'wr'
p3400
S'ex+be'
p3401
tp3402
F0.0001085717387763965
s(g52
g26
tp3403
F0.0020546451753576758
s(S'wr'
p3404
S'pps+be'
p3405
tp3406
F0.000434286955105586
s(g49
g26
tp3407
F0.0008626266982963123
s(g531
g2
tp3408
F0.15379186797676564
s(g67
g74
tp3409
F0.038535645472061654
s(g531
g19
tp3410
F0.08598881711090603
s(g49
g43
tp3411
F0.05939800979697465
s(S'jj'
p3412
g558
tp3413
F0.0032943995208146153
s(g52
S'wq'
p3414
tp3415
F0.00010063568205833515
s(g2448
S'vb'
p3416
tp3417
F0.08333333333333333
s(g3198
g32
tp3418
F0.0035214547893648337
s(g1886
S'ppss+m'
p3419
tp3420
F0.0006341154090044388
s(S'ap'
p3421
S'jj'
p3422
tp3423
F0.03296703296703297
s(g32
g67
tp3424
F0.005509895698964361
s(g223
g52
tp3425
F0.06771860618014464
s(g495
g56
tp3426
F0.013358778625954198
s(S'wr'
p3427
S'ber'
p3428
tp3429
F0.00016285760816459475
s(g1590
S'jj'
p3430
tp3431
F0.03125
s(S'nr'
p3432
S'wr'
p3433
tp3434
F0.00819672131147541
s(g441
S'cs'
p3435
tp3436
F1.863203592256526e-05
s(g38
g67
tp3437
F0.004148471615720524
s(S'wr'
p3438
S'do'
p3439
tp3440
F0.0033657239020682917
s(g43
S'np$'
p3441
tp3442
F4.9897709695124994e-05
s(g944
S'wd'
p3443
tp3444
F0.0026086956521739132
s(g577
S'vbn'
p3445
tp3446
F0.02027027027027027
s(S'np'
p3447
S'dod'
p3448
tp3449
F0.00014405070584845865
s(g378
S'jj'
p3450
tp3451
F0.04
s(g32
S'dts+be'
p3452
tp3453
F1.8427744812589837e-05
s(g102
S'jj'
p3454
tp3455
F0.020833333333333332
s(S'wd'
p3456
S'cd'
p3457
tp3458
F0.00017295053614666206
s(g2
S'wdt'
p3459
tp3460
F2.1597339207809597e-05
s(g74
S'sec/n'
p3461
tp3462
F7.734729709870288e-06
s(S'jjs'
p3463
g19
tp3464
F0.2
s(g74
S'2/c'
p3465
tp3466
F4.640837825922173e-05
s(g570
g50
tp3467
F0.003989361702127659
s(g167
g83
tp3468
F0.002742230347349177
s(g2
g26
tp3469
F0.0005615308194030495
s(g1510
g83
tp3470
F0.01694915254237288
s(S'np+be'
p3471
g2
tp3472
F0.23076923076923078
s(g2541
g65
tp3473
F0.010136532892014894
s(g3010
S'nn'
p3474
tp3475
F0.11475409836065574
s(g38
S'wps+be'
p3476
tp3477
F0.0002183406113537118
s(g65
S'pp'
p3478
tp3479
F0.05707434052757794
s(g4
g4
tp3480
F0.0022935779816513763
s(S'np'
p3481
S'nns'
p3482
tp3483
F0.004033419763756842
s(g256
S'dt'
p3484
tp3485
F0.0031545741324921135
s(g50
S'vb'
p3486
tp3487
F0.06977108811539667
s(S'vbg'
p3488
S'vbn'
p3489
tp3490
F0.013888888888888888
s(g2493
S'ppss'
p3491
tp3492
F0.0010395010395010396
s(g15
S'doz'
p3493
tp3494
F3.749390724007349e-05
s(S'bez'
p3495
g2
tp3496
F0.1276595744680851
s(g327
S'vb'
p3497
tp3498
F0.1554054054054054
s(g15
S'ab'
p3499
tp3500
F0.002688848776359556
s(g2
g2
tp3501
F0.18248671763638719
s(g74
S'or/c'
p3502
tp3503
F7.734729709870288e-06
s(g15
S'do'
p3504
tp3505
F0.0009212788636132343
s(S'do'
p3506
S'rb'
p3507
tp3508
F0.0008012820512820513
s(g52
g56
tp3509
F0.02236628033746499
s(S'hv'
p3510
S'md'
p3511
tp3512
F0.000683526999316473
s(g49
g83
tp3513
F0.005144952093410148
s(g1329
S'rb'
p3514
tp3515
F0.125
s(S'dt'
p3516
S'ql'
p3517
tp3518
F0.0004317789291882556
s(S'dt'
p3519
S'rb'
p3520
tp3521
F0.0011514104778353484
s(g368
S'vb'
p3522
tp3523
F0.07385739039704868
s(g38
S'wr'
p3524
tp3525
F0.0054585152838427945
s(g625
S'Output/jj'
p3526
tp3527
F0.014492753623188406
s(g1195
g2
tp3528
F0.05263157894736842
s(S'ppss+m'
p3529
S'od'
p3530
tp3531
F0.0016286644951140066
s(g52
S'to'
p3532
tp3533
F6.709045470555677e-05
s(g1767
g15
tp3534
F0.14285714285714285
s(g1477
S'jj'
p3535
tp3536
F0.00518722645485492
s(g125
g5
tp3537
F0.029069767441860465
s(S'wdt'
p3538
S'to'
p3539
tp3540
F0.010526315789473684
s(g74
S'uh'
p3541
tp3542
F1.5469459419740576e-05
s(g1375
g56
tp3543
F0.05652173913043478
s(S'bed'
p3544
S'dt'
p3545
tp3546
F0.0022471910112359553
s(g49
S'nn'
p3547
tp3548
F0.055208108690963986
s(g43
S'md'
p3549
tp3550
F0.00034928396786587494
s(g2365
S'jjr'
p3551
tp3552
F0.00014405070584845865
s(g1115
S'wp'
p3553
tp3554
F0.003930492345883326
s(S'pp'
p3555
S'ppss+be'
p3556
tp3557
F0.00010479222925315384
s(g4
g83
tp3558
F0.0045871559633027525
s(g74
S'ql'
p3559
tp3560
F0.0002629808101355898
s(g944
S'wr'
p3561
tp3562
F0.0026086956521739132
s(g345
g38
tp3563
F0.009541984732824428
s(g1
S'dt'
p3564
tp3565
F0.005109383995394358
s(g2455
S'vbn'
p3566
tp3567
F0.000683526999316473
s(g15
g167
tp3568
F0.002512091785084924
s(g125
S'nns'
p3569
tp3570
F0.01744186046511628
s(S'jj'
p3571
S'dod'
p3572
tp3573
F0.0002994908655286014
s(g3227
g40
tp3574
F0.003472222222222222
s(S'pp'
p3575
S'hvd'
p3576
tp3577
F0.00026601104348877516
s(S'ab'
p3578
S'np$'
p3579
tp3580
F0.00016210082671421625
s(S'wrb'
p3581
S'rb'
p3582
tp3583
F0.006756756756756757
s(g1850
S'nn'
p3584
tp3585
F0.05714285714285714
s(g56
S'hvd'
p3586
tp3587
F8.030838419531e-05
s(S'ppss+m'
p3588
g2
tp3589
F0.11726384364820847
s(g56
S'nn$'
p3590
tp3591
F0.0008833922261484099
s(S'vbz'
p3592
S'to'
p3593
tp3594
F0.012987012987012988
s(g83
g86
tp3595
F0.036384976525821594
s(S'ab'
p3596
g3210
tp3597
F0.00016210082671421625
s(g74
S'hv+t'
p3598
tp3599
F7.734729709870288e-06
s(g570
S'hv'
p3600
tp3601
F0.007978723404255319
s(g49
g65
tp3602
F0.013216673341754213
s(g56
g56
tp3603
F0.04280436877610023
s(g307
g19
tp3604
F0.08
s(g1183
g646
tp3605
F0.0010395010395010396
s(g698
g40
tp3606
F0.014705882352941176
s(S'dt'
p3607
S'hvd'
p3608
tp3609
F7.196315486470927e-05
s(S'cd'
p3610
g646
tp3611
F0.05077262693156733
s(g83
S'rb'
p3612
tp3613
F0.0011737089201877935
s(g52
g83
tp3614
F0.004511833078948693
s(S'ni'
p3615
g19
tp3616
F0.1016949152542373
s(g86
g32
tp3617
F0.004210655536459612
s(g52
S'dt'
p3618
tp3619
F0.005249828080709817
s(g977
S'hv'
p3620
tp3621
F0.02127659574468085
s(S'wdt+be'
p3622
g43
tp3623
F0.01098901098901099
s(g2
S'hv'
p3624
tp3625
F0.009146473154507364
s(S'cd'
p3626
S'jjr'
p3627
tp3628
F0.002207505518763797
s(g15
S'day/n'
p3629
tp3630
F1.0712544925735283e-05
s(g26
g49
tp3631
F0.009340338587273789
s(g74
S'vb'
p3632
tp3633
F0.06840594955409283
s(S'rb+be'
p3634
S'pp'
p3635
tp3636
F0.03488372093023256
s(g38
g32
tp3637
F0.0026200873362445414
s(g74
S'/n'
p3638
tp3639
F7.734729709870288e-06
s(g40
S'wd'
p3640
tp3641
F0.004677100197877316
s(g15
S'ap'
p3642
tp3643
F1.6068817388602925e-05
s(g189
S'wd'
p3644
tp3645
F0.0011534025374855825
s(g2269
g74
tp3646
F0.0234375
s(S'at'
p3647
g43
tp3648
F0.027555555555555555
s(g56
S'cd'
p3649
tp3650
F0.0038548024413748794
s(g50
S'cd'
p3651
tp3652
F0.00047036688617121356
s(S'pps+be'
p3653
S'bedz'
p3654
tp3655
F0.0006341154090044388
s(g83
S'wps'
p3656
tp3657
F0.0011737089201877935
s(g67
S'hv'
p3658
tp3659
F0.0019267822736030828
s(g83
g167
tp3660
F0.0011737089201877935
s(S'wr'
p3661
S'dod'
p3662
tp3663
F0.000651430432658379
s(g52
g167
tp3664
F0.0026416866540312977
s(S'fw'
p3665
g167
tp3666
F0.0021929824561403508
s(S'pp'
p3667
g67
tp3668
F0.0025714400870581597
s(S'nn+be'
p3669
g43
tp3670
F0.14285714285714285
s(g1111
g65
tp3671
F0.017665615141955835
s(g3227
g2
tp3672
F0.041666666666666664
s(g2224
S'wd'
p3673
tp3674
F0.0033783783783783786
s(g669
g49
tp3675
F0.0027369634111207145
s(g172
S'vb'
p3676
tp3677
F0.1875
s(g1615
S'nns'
p3678
tp3679
F0.06418918918918919
s(g1999
S'nn'
p3680
tp3681
F0.045112781954887216
s(g2
S'to+v'
p3682
tp3683
F1.0798669603904798e-05
s(S'ppss+h'
p3684
S'ppss+h'
p3685
tp3686
F0.005649717514124294
s(g988
S'pp'
p3687
tp3688
F0.03728070175438596
s(S'ab'
p3689
S'ni'
p3690
tp3691
F0.00016210082671421625
s(S'at'
p3692
g50
tp3693
F0.0008888888888888889
s(g2306
S'jj'
p3694
tp3695
F0.011987381703470032
s(g52
S'do'
p3696
tp3697
F0.0009057211385250164
s(g67
S'rb'
p3698
tp3699
F0.0019267822736030828
s(g3083
S'at'
p3700
tp3701
F0.1
s(g26
S'nns'
p3702
tp3703
F0.001816176947525459
s(g746
g5
tp3704
F0.125
s(S'pps'
p3705
S'pn+m'
p3706
tp3707
F1.863203592256526e-05
s(g2
S'hvz'
p3708
tp3709
F4.3194678415619194e-05
s(g56
S'rb'
p3710
tp3711
F0.0005621586893671699
s(g1214
g15
tp3712
F0.09875444839857651
s(g2931
g38
tp3713
F0.0024429967426710096
s(g450
g15
tp3714
F0.15384615384615385
s(g882
g4
tp3715
F0.007352941176470588
s(S'vbg'
p3716
S'cc'
p3717
tp3718
F0.017361111111111112
s(S'pps'
p3719
S'pp$'
p3720
tp3721
F0.00018632035922565258
s(g125
g40
tp3722
F0.0029069767441860465
s(g56
S'pp'
p3723
tp3724
F0.03397044651461613
s(S'at'
p3725
S'ppo'
p3726
tp3727
F0.0008888888888888889
s(g32
S'wrb+m'
p3728
tp3729
F1.8427744812589837e-05
s(g86
S'ppl'
p3730
tp3731
F0.00035600294623127916
s(S'wr'
p3732
g26
tp3733
F0.001520004342869551
s(g49
S'wps'
p3734
tp3735
F3.080809636772544e-05
s(g393
S'nns'
p3736
tp3737
F0.002403846153846154
s(g698
g15
tp3738
F0.07352941176470588
s(S'np'
p3739
g646
tp3740
F0.0024488619994237973
s(g371
S'pp$'
p3741
tp3742
F0.0003257152163291895
s(g3510
S'ab'
p3743
tp3744
F0.004101161995898838
s(g26
S'wrb'
p3745
tp3746
F6.486346241162354e-05
s(g40
g40
tp3747
F0.014750854470228458
s(g3010
S'nr'
p3748
tp3749
F0.01639344262295082
s(g86
S'vbg'
p3750
tp3751
F9.820770930518046e-05
s(g26
S'bed'
p3752
tp3753
F0.021015761821366025
s(g1375
g52
tp3754
F0.08608695652173913
s(S'jj'
p3755
g56
tp3756
F0.01497454327643007
s(g1617
S'vb'
p3757
tp3758
F0.02702702702702703
s(g74
S'jjr'
p3759
tp3760
F7.734729709870288e-06
s(S'np'
p3761
S'np'
p3762
tp3763
F0.032411408815903195
s(g32
S'vb+pp'
p3764
tp3765
F0.0005159768547525154
s(g2493
S'ap'
p3766
tp3767
F0.0010395010395010396
s(g2
S'dod'
p3768
tp3769
F0.00030236274890933437
s(g2852
S'in'
p3770
tp3771
F0.1111111111111111
s(g3227
g43
tp3772
F0.003472222222222222
s(g43
S'wr'
p3773
tp3774
F0.0027942717429269995
s(S'np'
p3775
g67
tp3776
F0.0024488619994237973
s(g1115
g4
tp3777
F0.005930216521859054
s(g2126
g86
tp3778
F0.04081254282374753
s(S'pp'
p3779
S'pn'
p3780
tp3781
F8.867034782959171e-05
s(g223
S'wd'
p3782
tp3783
F0.005917159763313609
s(g67
S'ab'
p3784
tp3785
F0.0038535645472061657
s(g107
g2
tp3786
F0.14102564102564102
s(g2252
g19
tp3787
F0.23809523809523808
s(g523
S'wr'
p3788
tp3789
F0.004071661237785016
s(g15
S'7074/cd'
p3790
tp3791
F5.356272462867641e-06
s(g223
g83
tp3792
F0.01972386587771203
s(S'wr'
p3793
S'doz'
p3794
tp3795
F0.00027142934694099124
s(g2126
g74
tp3796
F0.06745395187618396
s(g233
g65
tp3797
F0.0265282583621684
s(g1361
S'vb'
p3798
tp3799
F0.08791208791208792
s(S'pps+hv'
p3800
S'pps+be'
p3801
tp3802
F0.0019083969465648854
s(g49
S'ab'
p3803
tp3804
F0.0034196986968175235
s(g2442
S'pps'
p3805
tp3806
F0.00730473871511519
s(S'pps+be'
p3807
g49
tp3808
F0.01077996195307546
s(g15
S'4/c'
p3809
tp3810
F5.356272462867641e-06
s(g2
S'at'
p3811
tp3812
F0.0007343095330655263
s(g906
g43
tp3813
F0.07142857142857142
s(g56
S'wp'
p3814
tp3815
F0.0014455509155155799
s(g2448
g52
tp3816
F0.125
s(S'vb'
p3817
S'vbn'
p3818
tp3819
F0.0004682524817381532
s(g4
g125
tp3820
F0.0022935779816513763
s(g249
S'be'
p3821
tp3822
F0.02768166089965398
s(g223
g167
tp3823
F0.0019723865877712033
s(g2620
S'pp'
p3824
tp3825
F0.2
s(g86
S'wps+hv'
p3826
tp3827
F1.2275963663147557e-05
s(g231
S'pp'
p3828
tp3829
F0.041681079211345555
s(g2224
g56
tp3830
F0.030405405405405407
s(g24
S'wr'
p3831
tp3832
F0.012048192771084338
s(g3647
S'be'
p3833
tp3834
F0.008
s(g220
g15
tp3835
F0.0692090395480226
s(S'nns'
p3836
g558
tp3837
F0.006237006237006237
s(g2112
g2
tp3838
F0.13696808510638298
s(g2787
g19
tp3839
F0.046875
s(S'fw'
p3840
g32
tp3841
F0.0021929824561403508
s(g3243
g50
tp3842
F0.012345679012345678
s(g2
S'pp$'
p3843
tp3844
F7.559068722733359e-05
s(g1195
S'nn'
p3845
tp3846
F0.05263157894736842
s(S'nns'
p3847
S'nr'
p3848
tp3849
F0.0010395010395010396
s(S'wd'
p3850
g38
tp3851
F0.0020754064337599448
s(S'at'
p3852
S'to'
p3853
tp3854
F0.0017777777777777779
s(S'vb'
p3855
S'at'
p3856
tp3857
F0.0007960292189548605
s(g1225
g19
tp3858
F0.15384615384615385
s(g225
S'nn'
p3859
tp3860
F0.07446808510638298
s(g944
S'dt'
p3861
tp3862
F0.0017391304347826088
s(g3761
S'wp'
p3863
tp3864
F0.0024488619994237973
s(g223
S'ppss+be'
p3865
tp3866
F0.005259697567389875
s(g846
S'hv'
p3867
tp3868
F0.005468215994531784
s(g40
g74
tp3869
F0.0581039755351682
s(g249
S'pp'
p3870
tp3871
F0.04152249134948097
s(g419
g52
tp3872
F0.2857142857142857
s(S'wd'
p3873
g50
tp3874
F0.008820477343479766
s(g1755
g52
tp3875
F0.08333333333333333
s(S'pp'
p3876
S'do'
p3877
tp3878
F0.0018540163637096449
s(g38
S'vbn'
p3879
tp3880
F0.0008733624454148472
s(g65
S'wp'
p3881
tp3882
F0.0038369304556354917
s(g43
g86
tp3883
F0.029539444139513996
s(S'np+be'
p3884
g74
tp3885
F0.07692307692307693
s(S'wr'
p3886
S'bez'
p3887
tp3888
F5.428586938819825e-05
s(S'fw'
p3889
S'nn$'
p3890
tp3891
F0.0021929824561403508
s(g10
g74
tp3892
F0.03488372093023256
s(g88
S'pp'
p3893
tp3894
F0.03596214511041009
s(g38
S'fw'
p3895
tp3896
F0.0006550218340611354
s(S'pps'
p3897
S'nps$'
p3898
tp3899
F1.863203592256526e-05
s(g2448
S'np+bez'
p3900
tp3901
F0.041666666666666664
s(g15
S'pp$'
p3902
tp3903
F0.00013390681157169102
s(g86
S'vb'
p3904
tp3905
F0.06825435796710042
s(g2055
g86
tp3906
F0.033206502940159116
s(S'pps'
p3907
S'ppl'
p3908
tp3909
F0.0007825455087477408
s(g26
S'vb'
p3910
tp3911
F0.04903677758318739
s(g1126
g49
tp3912
F0.0065087094961603295
s(S'dt'
p3913
S'ber'
p3914
tp3915
F7.196315486470927e-05
s(g3347
g52
tp3916
F0.09887640449438202
s(g979
S'dt'
p3917
tp3918
F0.00487012987012987
s(S'wr'
p3919
S'at'
p3920
tp3921
F0.00027142934694099124
s(g40
g15
tp3922
F0.0960604425256341
s(g49
S'or/c'
p3923
tp3924
F3.080809636772544e-05
s(g2473
S'wps'
p3925
tp3926
F0.0008984725965858042
s(g74
S'pn+hv'
p3927
tp3928
F7.734729709870288e-06
s(g680
g5
tp3929
F0.16666666666666666
s(g26
g646
tp3930
F6.486346241162354e-05
s(g388
S'pps+hv'
p3931
tp3932
F0.0008143322475570033
s(S'vbn'
p3933
g86
tp3934
F0.010135135135135136
s(g1214
g5
tp3935
F0.04495223824686271
s(g1398
S'vb'
p3936
tp3937
F0.06347150259067358
s(g52
S'wps+bez'
p3938
tp3939
F8.386306838194597e-06
s(S'nn$'
p3940
S'vbn'
p3941
tp3942
F0.009259259259259259
s(g4
S'cc'
p3943
tp3944
F0.0022935779816513763
s(g292
S'vb'
p3945
tp3946
F0.05747126436781609
s(g86
S'16/c'
p3947
tp3948
F1.2275963663147557e-05
s(g32
S'bez'
p3949
tp3950
F0.0005896878340028748
s(g65
g83
tp3951
F0.011031175059952039
s(g223
g43
tp3952
F0.030900723208415515
s(g3012
g19
tp3953
F0.16666666666666666
s(g71
S'ber'
p3954
tp3955
F0.08421052631578947
s(S'wp'
p3956
S'nr'
p3957
tp3958
F0.0011534025374855825
s(g1392
S'ppo'
p3959
tp3960
F3.447800303406427e-05
s(g15
S'hr./*0F./in./ni'
p3961
tp3962
F5.356272462867641e-06
s(g15
S'ql'
p3963
tp3964
F0.00020353835358897037
s(g2578
S'bez'
p3965
tp3966
F0.00027582402427251415
s(S'nns$'
p3967
g119
tp3968
F0.0625
s(g74
S'bez'
p3969
tp3970
F0.0001237556753579246
s(g52
S'vbn'
p3971
tp3972
F0.0007547676154375136
s(g368
g2
tp3973
F0.13286504816381287
s(g86
S'vb+pp'
p3974
tp3975
F6.137981831573779e-05
s(S'ppss+be'
p3976
S'md'
p3977
tp3978
F0.0017391304347826088
s(g125
g646
tp3979
F0.28488372093023256
s(g1535
S'nr'
p3980
tp3981
F0.0006309148264984228
s(S'ppss+m'
p3982
S'md'
p3983
tp3984
F0.0016286644951140066
s(g74
g223
tp3985
F0.0002629808101355898
s(g2126
g19
tp3986
F0.06834065535447986
s(S'ab'
p3987
S'ql'
p3988
tp3989
F0.0003242016534284325
s(g846
S'be'
p3990
tp3991
F0.025974025974025976
s(S'pps+be'
p3992
S'ppss+be'
p3993
tp3994
F0.0019023462270133164
s(g450
S'ab'
p3995
tp3996
F0.038461538461538464
s(g2
S'nr'
p3997
tp3998
F0.0004211481145522872
s(g1625
g50
tp3999
F0.004629629629629629
s(g32
S'ex+hv'
p4000
tp4001
F1.8427744812589837e-05
s(g4
S'vb'
p4002
tp4003
F0.07568807339449542
s(g38
g83
tp4004
F0.0058951965065502186
s(g38
S'nns'
p4005
tp4006
F0.0017467248908296944
s(g83
S'nns'
p4007
tp4008
F0.007042253521126761
s(g15
S'nr'
p4009
tp4010
F0.0003749390724007349
s(g3800
S'wp'
p4011
tp4012
F0.0019083969465648854
s(g74
S'do'
p4013
tp4014
F0.0021038464810847184
s(S'at'
p4015
S'wd'
p4016
tp4017
F0.005333333333333333
s(g83
g4
tp4018
F0.007042253521126761
s(S'np'
p4019
g38
tp4020
F0.0011524056467876692
s(g74
S'jj'
p4021
tp4022
F0.005839720930952068
s(g2925
S'wd'
p4023
tp4024
F0.004626979968562331
s(g2985
g167
tp4025
F0.0010247619757410892
s(g26
S'ppss+hv'
p4026
tp4027
F6.486346241162354e-05
s(S'ppss+h'
p4028
S'bed'
p4029
tp4030
F0.002824858757062147
s(g49
g558
tp4031
F3.080809636772544e-05
s(g50
S'fw'
p4032
tp4033
F0.00047036688617121356
s(S'pp'
p4034
S'nns$'
p4035
tp4036
F8.867034782959171e-05
s(g52
S'vbn+t'
p4037
tp4038
F8.386306838194597e-06
s(S'ppss+m'
p4039
S'pps+m'
p4040
tp4041
F0.0008143322475570033
s(g2620
g19
tp4042
F0.2
s(g4
g50
tp4043
F0.009174311926605505
s(g1880
g4
tp4044
F0.008988764044943821
s(g15
g50
tp4045
F0.007611263169734918
s(g26
S'nps'
p4046
tp4047
F6.486346241162354e-05
s(g3022
S'abn'
p4048
tp4049
F3.447800303406427e-05
s(S'at'
p4050
S'nps'
p4051
tp4052
F0.0008888888888888889
s(g56
g49
tp4053
F0.009476389335046579
s(g345
S'pps+hv'
p4054
tp4055
F0.009541984732824428
s(g50
S'np$'
p4056
tp4057
F0.00015678896205707118
s(S'dt'
p4058
S'jj'
p4059
tp4060
F0.006404720782959125
s(S'pps+m'
p4061
S'wp'
p4062
tp4063
F0.0016233766233766235
s(g49
S'ex+be'
p4064
tp4065
F3.080809636772544e-05
s(g67
g56
tp4066
F0.02697495183044316
s(g1137
g19
tp4067
F0.5454545454545454
s(g61
g43
tp4068
F0.06152849740932642
s(S'dt+be'
p4069
S'nns'
p4070
tp4071
F0.002506265664160401
s(g40
S'nn$'
p4072
tp4073
F0.0003597769382982551
s(S'do'
p4074
g43
tp4075
F0.04487179487179487
s(S'np'
p4076
g40
tp4077
F0.00965139729184673
s(g419
S'nn'
p4078
tp4079
F0.14285714285714285
s(g1288
g52
tp4080
F0.14285714285714285
s(g65
g52
tp4081
F0.08345323741007195
s(g86
g52
tp4082
F0.10495948931991161
s(S'nn'
p4083
g67
tp4084
F0.004309750379258033
s(S'nn'
p4085
S'fw'
p4086
tp4087
F0.0008274720728175424
s(g43
g43
tp4088
F0.06421835237762587
s(g10
g43
tp4089
F0.03488372093023256
s(g3246
g49
tp4090
F0.009308510638297872
s(g3172
S'cc'
p4091
tp4092
F0.016632016632016633
s(g2
S'vbd'
p4093
tp4094
F1.0798669603904798e-05
s(g50
S'ppl'
p4095
tp4096
F0.0007839448102853559
s(S'ppss+m'
p4097
g49
tp4098
F0.010586319218241042
s(g61
g74
tp4099
F0.06419113413932066
s(S'pps+be'
p4100
S'do'
p4101
tp4102
F0.0031705770450221942
s(g3010
g119
tp4103
F0.01639344262295082
s(g450
g43
tp4104
F0.038461538461538464
s(g1654
S'pp'
p4105
tp4106
F0.0759493670886076
s(g130
S'to'
p4107
tp4108
F0.0625
s(g203
g49
tp4109
F0.031914893617021274
s(S'bed'
p4110
g50
tp4111
F0.006741573033707865
s(g554
g15
tp4112
F0.041777777777777775
s(g711
g49
tp4113
F0.16666666666666666
s(g56
S'od'
p4114
tp4115
F0.00016061676839062
s(g74
g43
tp4116
F0.05492431566978892
s(g2
S'pps+be'
p4117
tp4118
F0.00023757073128590557
s(g26
S'jj$'
p4119
tp4120
F6.486346241162354e-05
s(g21
g5
tp4121
F0.11779448621553884
s(g71
S'ppss'
p4122
tp4123
F0.16842105263157894
s(g882
g86
tp4124
F0.030392156862745098
s(g49
S'ppss+be'
p4125
tp4126
F6.161619273545088e-05
s(g32
g119
tp4127
F1.8427744812589837e-05
s(g2126
g5
tp4128
F0.054298496634557256
s(g2455
S'in'
p4129
tp4130
F0.000683526999316473
s(g223
S'vbn'
p4131
tp4132
F0.0006574621959237344
s(S'ppss'
p4133
S'nns'
p4134
tp4135
F0.05555555555555555
s(g3495
S'np'
p4136
tp4137
F0.031914893617021274
s(g10
g40
tp4138
F0.023255813953488372
s(g32
S'jjs'
p4139
tp4140
F3.685548962517967e-05
s(g292
g5
tp4141
F0.034482758620689655
s(g50
g67
tp4142
F0.005017246785826278
s(g450
S'dt'
p4143
tp4144
F0.038461538461538464
s(S'pp'
p4145
S'wr'
p4146
tp4147
F0.0036435452017250414
s(S'wr'
p4148
S'od'
p4149
tp4150
F0.00038000108571738776
s(S'pps+be'
p4151
S'bez'
p4152
tp4153
F0.0006341154090044388
s(S'vbz'
p4154
S'jjr'
p4155
tp4156
F0.012987012987012988
s(g928
g2
tp4157
F0.10759493670886076
s(g52
g125
tp4158
F4.193153419097298e-05
s(g50
S'jj'
p4159
tp4160
F0.005644402634054563
s(g1225
S'nns'
p4161
tp4162
F0.038461538461538464
s(g56
g32
tp4163
F0.0036941856729842595
s(g625
g74
tp4164
F0.014492753623188406
s(S'np'
p4165
S'od'
p4166
tp4167
F0.000864304235090752
s(g473
S'vbn'
p4168
tp4169
F0.006514657980456026
s(g86
S'wdt'
p4170
tp4171
F1.2275963663147557e-05
s(S'ppss+be'
p4172
S'hv'
p4173
tp4174
F0.0008695652173913044
s(g74
S'to'
p4175
tp4176
F2.3204189129610864e-05
s(S'md'
p4177
g67
tp4178
F0.006329113924050633
s(g988
g4
tp4179
F0.006578947368421052
s(g32
S'wdt+hv'
p4180
tp4181
F1.8427744812589837e-05
s(g292
g32
tp4182
F0.011494252873563218
s(g32
S'vb+i'
p4183
tp4184
F1.8427744812589837e-05
s(S'dod'
p4185
S'bed'
p4186
tp4187
F0.020833333333333332
s(g26
g5
tp4188
F0.049620548744892
s(S'vbz'
p4189
S'nn'
p4190
tp4191
F0.22077922077922077
s(S'nn'
p4192
S'wr'
p4193
tp4194
F0.00234450420631637
s(g49
S'ql'
p4195
tp4196
F0.00021565667457407807
s(S'dt'
p4197
S'pps+be'
p4198
tp4199
F0.00014392630972941855
s(S'pps'
p4200
S'jj'
p4201
tp4202
F0.005254234130163403
s(g1288
g5
tp4203
F0.14285714285714285
s(g149
g119
tp4204
F0.010526315789473684
s(g214
g56
tp4205
F0.03677869372225745
s(g43
g2
tp4206
F0.1677062022853151
s(g197
g15
tp4207
F0.10261569416498995
s(S'ppss+hv'
p4208
S'wps+hv'
p4209
tp4210
F0.004016064257028112
s(g1026
g19
tp4211
F0.2604166666666667
s(g50
g43
tp4212
F0.06459705236751333
s(S'jj'
p4213
S'wp'
p4214
tp4215
F0.0032943995208146153
s(S'nn'
p4216
S'vbd'
p4217
tp4218
F0.0001034340091021928
s(g269
g52
tp4219
F0.09259259259259259
s(g2687
S'ppss+h'
p4220
tp4221
F0.0034782608695652175
s(g74
S'wdt'
p4222
tp4223
F1.5469459419740576e-05
s(g74
S'be'
p4224
tp4225
F0.021626304268797327
s(g74
S'in'
p4226
tp4227
F0.0011834136456101542
s(g463
S'in'
p4228
tp4229
F0.25
s(g803
S'pp'
p4230
tp4231
F0.03025064822817632
s(g26
g74
tp4232
F0.0644742816371538
s(S'pps'
p4233
S'cc'
p4234
tp4235
F0.00018632035922565258
s(g954
S'hv'
p4236
tp4237
F0.007881351195245105
s(S'wd'
p4238
S'ppss+h'
p4239
tp4240
F0.00017295053614666206
s(g38
S'nn'
p4241
tp4242
F0.04737991266375546
s(S'cd'
p4243
S'in'
p4244
tp4245
F0.02207505518763797
s(g32
S'in'
p4246
tp4247
F0.0009029594958169019
s(g223
S'pp'
p4248
tp4249
F0.04799474030243261
s(g1625
S'fw'
p4250
tp4251
F0.013888888888888888
s(g1575
g43
tp4252
F0.0425531914893617
s(g38
g40
tp4253
F0.019868995633187773
s(g49
S'ppl'
p4254
tp4255
F0.00018484857820635263
s(g43
S'at'
p4256
tp4257
F0.00044907938725612497
s(g1839
S'be'
p4258
tp4259
F0.00784313725490196
s(S'ppss+be'
p4260
S'wps+be'
p4261
tp4262
F0.0008695652173913044
s(S'dt'
p4263
S'cd'
p4264
tp4265
F0.0015112262521588947
s(g345
S'be'
p4266
tp4267
F0.02480916030534351
s(g52
S'jjs'
p4268
tp4269
F8.386306838194597e-06
s(g1398
S'in'
p4270
tp4271
F0.001367299942429476
s(g3136
g646
tp4272
F1.612188142356213e-05
s(S'wd'
p4273
g32
tp4274
F0.004323763403666551
s(S'wd'
p4275
S'at'
p4276
tp4277
F0.0006918021445866483
s(g419
S'vb'
p4278
tp4279
F0.14285714285714285
s(g625
S'in'
p4280
tp4281
F0.014492753623188406
s(g83
S'np'
p4282
tp4283
F0.01056338028169014
s(g220
S'dt'
p4284
tp4285
F0.005649717514124294
s(g52
S'ben'
p4286
tp4287
F8.386306838194597e-06
s(g15
S'l/n'
p4288
tp4289
F4.285017970294113e-05
s(g267
g86
tp4290
F0.033750719631548645
s(g32
S'dt+be'
p4291
tp4292
F0.0011609479231931596
s(g65
g15
tp4293
F0.07098321342925659
s(g1173
S'pps'
p4294
tp4295
F0.03571428571428571
s(S'in'
p4296
S'np'
p4297
tp4298
F0.0749185667752443
s(g52
S'nn$'
p4299
tp4300
F0.0004444742624243136
s(S'nn'
p4301
S'pps+hv'
p4302
tp4303
F6.895600606812854e-05
s(g65
S'np'
p4304
tp4305
F0.003357314148681055
s(S'vbg'
p4306
S'nr'
p4307
tp4308
F0.006944444444444444
s(g3669
g5
tp4309
F0.2857142857142857
s(g15
S'in'
p4310
tp4311
F0.001971108266335292
s(g50
g2
tp4312
F0.1480087801818752
s(g192
S'nn'
p4313
tp4314
F0.09090909090909091
s(g3167
S'nns'
p4315
tp4316
F0.0022694115739990274
s(g65
g56
tp4317
F0.0671462829736211
s(g52
g5
tp4318
F0.03924791600275071
s(g49
S'wd'
p4319
tp4320
F0.006130811177177362
s(S'wq'
p4321
S'fw'
p4322
tp4323
F0.0013297872340425532
s(g1401
g5
tp4324
F0.18421052631578946
s(S'wd'
p4325
g4
tp4326
F0.006572120373573158
s(g80
S'np'
p4327
tp4328
F0.01639344262295082
s(g2448
S'in'
p4329
tp4330
F0.041666666666666664
s(S'vb'
p4331
g40
tp4332
F0.010395205094587
s(g43
g125
tp4333
F4.9897709695124994e-05
s(g554
g52
tp4334
F0.052444444444444446
s(g67
S'wp'
p4335
tp4336
F0.0019267822736030828
s(S'bed'
p4337
S'wd'
p4338
tp4339
F0.011235955056179775
s(g2292
g26
tp4340
F0.002050580997949419
s(g40
g50
tp4341
F0.0061162079510703364
s(g52
S'ppss+h'
p4342
tp4343
F2.5158920514583786e-05
s(g86
g49
tp4344
F0.007856616744414437
s(g38
S'at'
p4345
tp4346
F0.0006550218340611354
s(g1631
S'md'
p4347
tp4348
F0.01098901098901099
s(g1375
S'jj'
p4349
tp4350
F0.0034782608695652175
s(S'nn'
p4351
S'ni'
p4352
tp4353
F3.447800303406427e-05
s(S'be'
p4354
g26
tp4355
F0.006372549019607843
s(S'pps+m'
p4356
S'hvd'
p4357
tp4358
F0.0016233766233766235
s(g86
S'jj'
p4359
tp4360
F0.006653572305425976
s(S'nn'
p4361
S'pn'
p4362
tp4363
F6.895600606812854e-05
s(g4208
g49
tp4364
F0.004016064257028112
s(g2448
g2
tp4365
F0.125
s(g50
g50
tp4366
F0.010034493571652555
s(g1625
S'nns'
p4367
tp4368
F0.009259259259259259
s(g74
S'jjt'
p4369
tp4370
F1.5469459419740576e-05
s(g2707
g5
tp4371
F0.04290220820189274
s(g43
S'ab'
p4372
tp4373
F0.0031934534204879996
s(S'np'
p4374
S'nr'
p4375
tp4376
F0.0007202535292422932
s(g1017
g15
tp4377
F0.10714285714285714
s(S'ppss+h'
p4378
S'hv'
p4379
tp4380
F0.005649717514124294
s(g32
S'vb+a'
p4381
tp4382
F1.8427744812589837e-05
s(g86
S'rbr+c'
p4383
tp4384
F1.2275963663147557e-05
s(g1370
g86
tp4385
F0.046511627906976744
s(g43
S'nn$'
p4386
tp4387
F0.00019959083878049998
s(g756
S'pps'
p4388
tp4389
F0.014084507042253521
s(g4273
S'ab'
p4390
tp4391
F0.002940159114493255
s(g167
g49
tp4392
F0.006398537477148081
s(S'bedz'
p4393
g86
tp4394
F0.013513513513513514
s(S'np'
p4395
S'dt'
p4396
tp4397
F0.0012964563526361278
s(g1743
S'in'
p4398
tp4399
F0.006578947368421052
s(g345
S'wr'
p4400
tp4401
F0.0057251908396946565
s(S'fw'
p4402
g50
tp4403
F0.006578947368421052
s(g49
g15
tp4404
F0.09578237160725839
s(g378
g74
tp4405
F0.08
s(g43
S'hv'
p4406
tp4407
F0.004989770969512499
s(S'vb'
p4408
g38
tp4409
F0.001170631204345383
s(g2014
S'fw'
p4410
tp4411
F0.011494252873563218
s(S'be'
p4412
S'wd'
p4413
tp4414
F0.005392156862745098
s(S'pps'
p4415
g49
tp4416
F0.009055169458366716
s(g15
S'ppl'
p4417
tp4418
F0.0002571010782176468
s(g388
S'vb'
p4419
tp4420
F0.039902280130293157
s(g1590
S'nns'
p4421
tp4422
F0.03125
s(S'vb'
p4423
S'ber'
p4424
tp4425
F4.682524817381532e-05
s(g52
S'4/c'
p4426
tp4427
F2.5158920514583786e-05
s(g32
g86
tp4428
F0.04420815980540301
s(g26
S'wd'
p4429
tp4430
F0.006291755853927483
s(g56
S'np'
p4431
tp4432
F0.00513973658849984
s(S'nns$'
p4433
S'rp'
p4434
tp4435
F0.0625
s(g231
g5
tp4436
F0.05586302317537185
s(g378
S'pp'
p4437
tp4438
F0.02
s(g450
S'wp'
p4439
tp4440
F0.038461538461538464
s(g52
S'wp'
p4441
tp4442
F0.0037067476224820115
s(g4275
S'vbn'
p4443
tp4444
F0.0005188516084399862
s(S'ppss+m'
p4445
S'rb+be'
p4446
tp4447
F0.0008143322475570033
s(g32
S'hvd'
p4448
tp4449
F5.52832344377695e-05
s(S'ex+be'
p4450
S'nns'
p4451
tp4452
F0.002012072434607646
s(g74
S'od'
p4453
tp4454
F0.00015469459419740578
s(g29
S'nns'
p4455
tp4456
F0.01639344262295082
s(g2555
S'vbn'
p4457
tp4458
F0.012987012987012988
s(g49
S'nr'
p4459
tp4460
F0.0003388890600449798
s(g56
g40
tp4461
F0.013973658849983939
s(g50
g223
tp4462
F0.00031357792411414236
s(g86
S'fw'
p4463
tp4464
F0.0008224895654308863
s(g317
S'be'
p4465
tp4466
F0.0215142738932561
s(g988
S'np'
p4467
tp4468
F0.02631578947368421
s(g167
S'np'
p4469
tp4470
F0.003656307129798903
s(g74
S'pps+hv'
p4471
tp4472
F0.00011602094564805433
s(g56
S'bed'
p4473
tp4474
F0.0009637006103437199
s(g83
S'pp'
p4475
tp4476
F0.03755868544600939
s(g2
g52
tp4477
F0.1068744330698458
s(g167
g15
tp4478
F0.09780621572212066
s(S'ex+be'
p4479
g65
tp4480
F0.014084507042253521
s(S'bed'
p4481
S'be'
p4482
tp4483
F0.008988764044943821
s(S'rb'
p4484
S'be'
p4485
tp4486
F0.00946372239747634
s(g811
S'nn'
p4487
tp4488
F0.08
s(g220
g5
tp4489
F0.08050847457627118
s(g32
g558
tp4490
F1.8427744812589837e-05
s(g65
g2
tp4491
F0.1486810551558753
s(g988
g40
tp4492
F0.0043859649122807015
s(g43
S'vbz'
p4493
tp4494
F4.9897709695124994e-05
s(g3128
S'dt'
p4495
tp4496
F0.002734107997265892
s(g125
S'jj'
p4497
tp4498
F0.00872093023255814
s(S'hv'
p4499
S'nps'
p4500
tp4501
F0.001367053998632946
s(g167
S'pps'
p4502
tp4503
F0.010054844606946984
s(S'jj'
p4504
S'nns'
p4505
tp4506
F0.027553159628631328
s(g38
S'bed'
p4507
tp4508
F0.010917030567685589
s(S'ppss+hv'
p4509
g83
tp4510
F0.012048192771084338
s(g49
g125
tp4511
F3.080809636772544e-05
s(g86
g86
tp4512
F0.033758900073655784
s(g2376
S'in'
p4513
tp4514
F0.0004901960784313725
s(g40
S'jj'
p4515
tp4516
F0.004497211728728188
s(S'vb'
p4517
S'cc'
p4518
tp4519
F9.365049634763064e-05
s(g3956
S'jj'
p4520
tp4521
F0.002306805074971165
s(g86
g119
tp4522
F1.2275963663147557e-05
s(S'jj'
p4523
S'ppl'
p4524
tp4525
F0.0005989817310572028
s(g309
S'hv'
p4526
tp4527
F0.02099236641221374
s(g40
g67
tp4528
F0.0037776578521316784
s(g86
S'pp'
p4529
tp4530
F0.04030198870611343
s(g49
g19
tp4531
F0.07033488400751718
s(g1214
S'pp'
p4532
tp4533
F0.03919273272148342
s(S'pps'
p4534
S'ber'
p4535
tp4536
F9.316017961282629e-05
s(g65
S'nns'
p4537
tp4538
F0.002398081534772182
s(g495
S'vb'
p4539
tp4540
F0.1297709923664122
s(S'pps'
p4541
g50
tp4542
F0.007434182333103538
s(S'nps'
p4543
S'cd'
p4544
tp4545
F0.3142857142857143
s(g52
S'vb'
p4546
tp4547
F0.06493517384814075
s(g56
g38
tp4548
F0.0014455509155155799
s(g127
S'jj'
p4549
tp4550
F0.3333333333333333
s(g3884
g86
tp4551
F0.07692307692307693
s(g307
S'vb'
p4552
tp4553
F0.04
s(g32
S'nn+hvz'
p4554
tp4555
F1.8427744812589837e-05
s(g3083
S'nn'
p4556
tp4557
F0.2
s(g1132
g4
tp4558
F0.008915545469281893
s(S'jj'
p4559
S'rb'
p4560
tp4561
F0.0005989817310572028
s(g32
S'wps+be'
p4562
tp4563
F0.00016584970331330853
s(g269
S'vb'
p4564
tp4565
F0.023148148148148147
s(g1343
g50
tp4566
F0.004024144869215292
s(g86
S'wrb'
p4567
tp4568
F2.4551927326295114e-05
s(g3347
S'np'
p4569
tp4570
F0.01348314606741573
s(g43
S'wq'
p4571
tp4572
F0.000149693129085375
s(S'wr'
p4573
S'nps'
p4574
tp4575
F0.0001085717387763965
s(S'nn'
p4576
S'hvg'
p4577
tp4578
F3.447800303406427e-05
s(g2787
S'pp'
p4579
tp4580
F0.0703125
s(g83
g56
tp4581
F0.014084507042253521
s(g179
g52
tp4582
F0.08469055374592833
s(g24
g2
tp4583
F0.12048192771084337
s(g1566
S'dod'
p4584
tp4585
F0.000741606545483858
s(g47
g52
tp4586
F0.07017543859649122
s(g49
g52
tp4587
F0.11411318894605502
s(S'be'
p4588
S'vb'
p4589
tp4590
F0.05784313725490196
s(g32
S'ab'
p4591
tp4592
F0.0033907050455165297
s(g32
S'pn+m'
p4593
tp4594
F1.8427744812589837e-05
s(S'ex+be'
p4595
g83
tp4596
F0.02012072434607646
s(g38
S'pp$'
p4597
tp4598
F0.0004366812227074236
s(g1922
S'wd'
p4599
tp4600
F0.004288583681667662
s(g26
S'vbn'
p4601
tp4602
F0.0006486346241162353
s(g32
g49
tp4603
F0.013581247926878709
s(S'ppss+h'
p4604
g65
tp4605
F0.005649717514124294
s(S'do'
p4606
S'fw'
p4607
tp4608
F0.0008012820512820513
s(S'jj'
p4609
g43
tp4610
F0.03653788559448937
s(S'do'
p4611
S'ql'
p4612
tp4613
F0.0008012820512820513
s(g56
g83
tp4614
F0.012769033087054288
s(g56
S'vbn'
p4615
tp4616
F0.00040154192097654996
s(S'ab'
p4617
g49
tp4618
F0.010212352082995623
s(g882
g74
tp4619
F0.047549019607843135
s(g38
g49
tp4620
F0.010698689956331877
s(S'pps'
p4621
S'nn$'
p4622
tp4623
F0.0002608485029159136
s(g192
g2
tp4624
F0.18181818181818182
s(g83
S'pp$'
p4625
tp4626
F0.0011737089201877935
s(S'nn'
p4627
S'rp'
p4628
tp4629
F6.895600606812854e-05
s(g24
S'pp'
p4630
tp4631
F0.06827309236947791
s(g56
S'md'
p4632
tp4633
F0.0005621586893671699
s(g56
g52
tp4634
F0.11283327979441053
s(g105
g86
tp4635
F0.0379746835443038
s(g4415
S'dt'
p4636
tp4637
F0.0046207449087961846
s(g2126
g49
tp4638
F0.006319777518036355
s(g74
g167
tp4639
F0.0016242932390727607
s(g208
g86
tp4640
F0.014705882352941176
s(g38
g5
tp4641
F0.059388646288209605
s(g4185
g43
tp4642
F0.020833333333333332
s(S'nn'
p4643
S'np$'
p4644
tp4645
F0.00027582402427251415
s(g49
S'pps+be'
p4646
tp4647
F3.080809636772544e-05
s(g601
g558
tp4648
F0.0012618296529968455
s(S'wr'
p4649
S'dt+be'
p4650
tp4651
F0.0001085717387763965
s(g3571
g67
tp4652
F0.002994908655286014
s(g74
S'l//n'
p4653
tp4654
F7.734729709870288e-06
s(g2713
S'cc'
p4655
tp4656
F0.0008012820512820513
s(g71
S'np'
p4657
tp4658
F0.08421052631578947
s(g56
S'dt'
p4659
tp4660
F0.0034532605203983296
s(g32
S'md+h'
p4661
tp4662
F5.52832344377695e-05
s(g167
g52
tp4663
F0.09872029250457039
s(g1587
S'cs'
p4664
tp4665
F5.428586938819825e-05
s(g107
S'pp'
p4666
tp4667
F0.05448717948717949
s(S'dt+be'
p4668
S'ab'
p4669
tp4670
F0.015037593984962405
s(g393
g40
tp4671
F0.016826923076923076
s(g56
S'nns'
p4672
tp4673
F0.00273048506264054
s(g2
S'nps'
p4674
tp4675
F0.00018357738326638158
s(S'pps'
p4676
S'in'
p4677
tp4678
F0.0007639134728251756
s(g2
g32
tp4679
F0.005172562740270398
s(g43
S'dt+be'
p4680
tp4681
F4.9897709695124994e-05
s(g65
S'or/c'
p4682
tp4683
F0.00047961630695443646
s(S'jj'
p4684
g49
tp4685
F0.004492362982929021
s(g38
S'ppo'
p4686
tp4687
F0.0002183406113537118
s(g167
S'ab'
p4688
tp4689
F0.012797074954296161
s(g289
S'in'
p4690
tp4691
F0.18181818181818182
s(g15
S'mbf/nn'
p4692
tp4693
F5.356272462867641e-06
s(g220
S'nn'
p4694
tp4695
F0.038135593220338986
s(g86
S'hvz'
p4696
tp4697
F2.4551927326295114e-05
s(g49
S'nn$'
p4698
tp4699
F0.0001540404818386272
s(S'nr'
p4700
g19
tp4701
F0.09016393442622951
s(g71
S'ap'
p4702
tp4703
F0.010526315789473684
s(S'nn'
p4704
S'wps+hv'
p4705
tp4706
F3.447800303406427e-05
s(g2473
S'pps'
p4707
tp4708
F0.002994908655286014
s(g577
S'cc'
p4709
tp4710
F0.02027027027027027
s(S'md'
p4711
S'be'
p4712
tp4713
F0.006329113924050633
s(g192
g43
tp4714
F0.09090909090909091
s(g1743
S'nns'
p4715
tp4716
F0.0043859649122807015
s(g906
g52
tp4717
F0.07142857142857142
s(S'pp'
p4718
S'nn+be'
p4719
tp4720
F3.224376284712426e-05
s(g32
S'md'
p4721
tp4722
F0.0024508900600744483
s(g83
S'wql'
p4723
tp4724
F0.0011737089201877935
s(g65
g40
tp4725
F0.01630695443645084
s(S'wr'
p4726
S'wr'
p4727
tp4728
F0.003962868465338472
s(g1493
g40
tp4729
F0.020080321285140562
s(g56
S'2/c'
p4730
tp4731
F8.030838419531e-05
s(g1615
S'vbg'
p4732
tp4733
F0.006756756756756757
s(g368
g52
tp4734
F0.10176818020905144
s(g74
S'nn$'
p4735
tp4736
F0.0002011029724566275
s(S'ex+be'
p4737
S'cd'
p4738
tp4739
F0.002012072434607646
s(g2
S'ni'
p4740
tp4741
F0.00018357738326638158
s(g3083
S'in'
p4742
tp4743
F0.2
s(g2415
g83
tp4744
F0.011627906976744186
s(g15
S'jjt'
p4745
tp4746
F5.356272462867641e-06
s(g2
S'ql'
p4747
tp4748
F0.00011878536564295279
s(S'pps'
p4749
S'ppss+be'
p4750
tp4751
F0.0004099047902964357
s(g4185
S'wr'
p4752
tp4753
F0.020833333333333332
s(g1446
g43
tp4754
F0.07692307692307693
s(g2620
g2
tp4755
F0.2
s(g74
S'nr'
p4756
tp4757
F0.000510492160851439
s(g1010
g43
tp4758
F0.04719101123595506
s(g15
g19
tp4759
F0.06881203233046058
s(g4609
S'np'
p4760
tp4761
F0.022761305780173706
s(g43
g49
tp4762
F0.006037622873110124
s(g65
S'vbn'
p4763
tp4764
F0.00047961630695443646
s(g86
S'vbd'
p4765
tp4766
F6.137981831573779e-05
s(g149
g125
tp4767
F0.010526315789473684
s(g2
S'uh'
p4768
tp4769
F3.23960088117144e-05
s(S'wp'
p4770
g52
tp4771
F0.08073817762399077
s(g1852
g43
tp4772
F0.06402982655211542
s(g86
S'bedz'
p4773
tp4774
F0.00015958752762091824
s(S'wd'
p4775
S'pn'
p4776
tp4777
F0.0005188516084399862
s(g167
g40
tp4778
F0.012797074954296161
s(g15
g67
tp4779
F0.00283882440531985
s(g52
S'vbz'
p4780
tp4781
F3.3545227352778386e-05
s(g906
g2
tp4782
F0.21428571428571427
s(g1493
g56
tp4783
F0.04417670682730924
s(g300
g74
tp4784
F0.05480682839173405
s(g52
S'pps+hv'
p4785
tp4786
F2.5158920514583786e-05
s(g74
S'ppss+be'
p4787
tp4788
F0.00033259337752442243
s(g223
S'ppss+m'
p4789
tp4790
F0.0019723865877712033
s(g2473
S'doz'
p4791
tp4792
F0.0005989817310572028
s(g3012
S'vbg'
p4793
tp4794
F0.08333333333333333
s(g790
S'be'
p4795
tp4796
F0.006237006237006237
s(g167
S'vbn'
p4797
tp4798
F0.0009140767824497258
s(S'wp'
p4799
S'do'
p4800
tp4801
F0.0034602076124567475
s(S'pps+be'
p4802
g223
tp4803
F0.0006341154090044388
s(g4100
S'wr'
p4804
tp4805
F0.0063411540900443885
s(S'nn'
p4806
S'ppl'
p4807
tp4808
F0.0006206040546131568
s(S'ppss+h'
p4809
g26
tp4810
F0.0014124293785310734
s(S'pp'
p4811
S'nr'
p4812
tp4813
F0.00023376728064165088
s(g32
S'ex+be'
p4814
tp4815
F0.0004975491099399256
s(g15
S'uh'
p4816
tp4817
F2.1425089851470566e-05
s(g86
S'or/c'
p4818
tp4819
F2.4551927326295114e-05
s(g32
S'dod'
p4820
tp4821
F0.0009950982198798511
s(S'pp'
p4822
S'ppss+hv'
p4823
tp4824
F3.224376284712426e-05
s(g15
g43
tp4825
F0.06180602794902971
s(g43
S'nns'
p4826
tp4827
F0.002395090065366
s(g1010
g19
tp4828
F0.1303370786516854
s(S'jj'
p4829
S'be'
p4830
tp4831
F0.016172506738544475
s(g300
g15
tp4832
F0.0649895178197065
s(g15
S'wp'
p4833
tp4834
F0.003802953448636025
s(g3992
S'md'
p4835
tp4836
F0.0006341154090044388
s(S'pps'
p4837
S'pps+hv'
p4838
tp4839
F1.863203592256526e-05
s(g32
S'hv'
p4840
tp4841
F0.004570080713522279
s(g24
S'np'
p4842
tp4843
F0.01606425702811245
s(g1329
g19
tp4844
F0.375
s(g1375
g5
tp4845
F0.08434782608695653
s(g38
S'hv'
p4846
tp4847
F0.0111353711790393
s(S'nns'
p4848
g119
tp4849
F0.006237006237006237
s(g32
S'nns$'
p4850
tp4851
F3.685548962517967e-05
s(g83
S'pps'
p4852
tp4853
F0.007042253521126761
s(g86
S'at'
p4854
tp4855
F0.0007856616744414437
s(g994
g167
tp4856
F0.022988505747126436
s(g167
g50
tp4857
F0.008226691042047532
s(g15
S'wps+hv'
p4858
tp4859
F5.356272462867641e-06
s(g924
S'jj'
p4860
tp4861
F0.060444444444444446
s(S'nns'
p4862
S'in'
p4863
tp4864
F0.06548856548856549
s(g2
S'be'
p4865
tp4866
F0.015334110837544815
s(g994
S'pp'
p4867
tp4868
F0.011494252873563218
s(g3716
S'jj'
p4869
tp4870
F0.03819444444444445
s(g223
g26
tp4871
F0.003287310979618672
s(S'ppss+be'
p4872
S'ex+be'
p4873
tp4874
F0.0008695652173913044
s(g378
S'nns'
p4875
tp4876
F0.02
s(S'at'
p4877
g19
tp4878
F0.13155555555555556
s(g721
S'ppo'
p4879
tp4880
F0.012345679012345678
s(S'ab'
p4881
g223
tp4882
F0.00016210082671421625
s(g49
g119
tp4883
F6.161619273545088e-05
s(g43
g15
tp4884
F0.07948705154433411
s(g225
S'jj'
p4885
tp4886
F0.031914893617021274
s(g32
S'cc'
p4887
tp4888
F0.00020270519293848818
s(g2464
S'nns'
p4889
tp4890
F0.042105263157894736
s(S'pps'
p4891
S'wr'
p4892
tp4893
F0.004602112872873619
s(g52
S'vbd'
p4894
tp4895
F4.193153419097298e-05
s(S'at'
p4896
S'jjt'
p4897
tp4898
F0.0008888888888888889
s(g40
S'dt'
p4899
tp4900
F0.005396654074473826
s(S'pps'
p4901
S'pn+be'
p4902
tp4903
F1.863203592256526e-05
s(g2506
S'np+hvz'
p4904
tp4905
F0.0004901960784313725
s(g49
g49
tp4906
F0.004528790166055639
s(g4609
S'jj'
p4907
tp4908
F0.015873015873015872
s(g86
S'ppss+hv'
p4909
tp4910
F3.682789098944267e-05
s(S'dt+be'
p4911
S'pps'
p4912
tp4913
F0.022556390977443608
s(g223
S'do'
p4914
tp4915
F0.0039447731755424065
s(g43
S'rb'
p4916
tp4917
F0.000748465645426875
s(g419
g2
tp4918
F0.14285714285714285
s(g368
g15
tp4919
F0.08287529578357027
s(g2
S'wd'
p4920
tp4921
F0.003541963630080774
s(g570
S'do'
p4922
tp4923
F0.0026595744680851063
s(g83
g5
tp4924
F0.051643192488262914
s(g317
g50
tp4925
F0.006412908564335954
s(g1158
S'ppo'
p4926
tp4927
F4.682524817381532e-05
s(g43
S'doz'
p4928
tp4929
F4.9897709695124994e-05
s(g1341
g38
tp4930
F0.005392156862745098
s(g3347
g86
tp4931
F0.0449438202247191
s(g959
g19
tp4932
F0.23255813953488372
s(g3427
S'in'
p4933
tp4934
F0.001085717387763965
s(g32
S'ppss+h'
p4935
tp4936
F0.0016216415435079054
s(g327
S'at'
p4937
tp4938
F0.033783783783783786
s(g74
S'20th/o'
p4939
tp4940
F7.734729709870288e-06
s(g77
S'wd'
p4941
tp4942
F0.020833333333333332
s(g1460
g19
tp4943
F0.25
s(S'np'
p4944
S'ppl'
p4945
tp4946
F0.00014405070584845865
s(S'np'
p4947
S'bez'
p4948
tp4949
F0.00014405070584845865
s(g2224
g74
tp4950
F0.05067567567567568
s(g203
g86
tp4951
F0.05319148936170213
s(g1850
S'4/c'
p4952
tp4953
F0.05714285714285714
s(g300
g19
tp4954
F0.131476489967056
s(g43
S'day/acre/n'
p4955
tp4956
F4.9897709695124994e-05
s(g15
g32
tp4957
F0.004376074602162863
s(g1158
S'wdt'
p4958
tp4959
F4.682524817381532e-05
s(g56
S'pps+be'
p4960
tp4961
F0.00032123353678124
s(g3012
S'nns'
p4962
tp4963
F0.16666666666666666
s(g133
S'at'
p4964
tp4965
F0.003989361702127659
s(g2957
S'nn'
p4966
tp4967
F0.3333333333333333
s(g86
S'bed'
p4968
tp4969
F0.007770684998772403
s(g223
g15
tp4970
F0.055884286653517426
s(g4100
S'hv'
p4971
tp4972
F0.0012682308180088776
s(S'nns'
p4973
S'wps'
p4974
tp4975
F0.0010395010395010396
s(g83
S'wp'
p4976
tp4977
F0.002347417840375587
s(g1288
g40
tp4978
F0.14285714285714285
s(g1210
g15
tp4979
F0.07377049180327869
s(g2046
S'nns'
p4980
tp4981
F0.047619047619047616
s(g1477
S'pps'
p4982
tp4983
F0.006970335548711298
s(S'ab'
p4984
g38
tp4985
F0.00129680661371373
s(g1115
g2
tp4986
F0.16039167011446698
s(g86
S'nr'
p4987
tp4988
F0.0002332433095998036
s(g13
g83
tp4989
F0.022727272727272728
s(S'jj'
p4990
S'wd'
p4991
tp4992
F0.001497454327643007
s(S'jj'
p4993
S'nr'
p4994
tp4995
F0.0011979634621144056
s(g531
g5
tp4996
F0.04402584007382878
s(g133
S'in'
p4997
tp4998
F0.0026595744680851063
s(g1767
g5
tp4999
F0.14285714285714285
s(g26
S'nn$'
p5000
tp5001
F0.00025945384964649415
s(S'pps'
p5002
S'ppss+hv'
p5003
tp5004
F0.00018632035922565258
s(g935
S'ppl'
p5005
tp5006
F0.000683526999316473
s(g405
g558
tp5007
F0.10810810810810811
s(g932
S'bed'
p5008
tp5009
F0.0041928721174004195
s(S'ap'
p5010
S'vbn'
p5011
tp5012
F0.02197802197802198
s(g50
S'nr'
p5013
tp5014
F0.00047036688617121356
s(S'be'
p5015
S'vbd'
p5016
tp5017
F0.0004901960784313725
s(g15
g4
tp5018
F0.005409835187496318
s(g391
S'pps'
p5019
tp5020
F0.04
s(S'wdt+be'
p5021
g15
tp5022
F0.03296703296703297
s(g912
S'nn'
p5023
tp5024
F0.11627906976744186
s(g74
g125
tp5025
F5.414310796909202e-05
s(g61
S'be'
p5026
tp5027
F0.029145077720207253
s(S'pps'
p5028
S'wd'
p5029
tp5030
F0.0050679137709377505
s(g450
g5
tp5031
F0.038461538461538464
s(g4
S'at'
p5032
tp5033
F0.0045871559633027525
s(S'nn'
p5034
g223
tp5035
F3.447800303406427e-05
s(g56
S'wps+be'
p5036
tp5037
F8.030838419531e-05
s(g526
g32
tp5038
F0.004629629629629629
s(g86
g65
tp5039
F0.012644242573041984
s(g2765
S'bed'
p5040
tp5041
F0.0010395010395010396
s(g2
g125
tp5042
F2.1597339207809597e-05
s(g21
g43
tp5043
F0.05012531328320802
s(g2042
g5
tp5044
F0.1328125
s(S'pps+be'
p5045
S'pps+be'
p5046
tp5047
F0.004438807863031071
s(g371
g49
tp5048
F0.009825742359263884
s(g32
S'rb+be'
p5049
tp5050
F1.8427744812589837e-05
s(S'at'
p5051
S'dt'
p5052
tp5053
F0.0026666666666666666
s(g32
S'ppss'
p5054
tp5055
F3.685548962517967e-05
s(g65
g49
tp5056
F0.007673860911270983
s(g3592
S'vb'
p5057
tp5058
F0.012987012987012988
s(g74
S'rb'
p5059
tp5060
F0.0013226387803878194
s(g179
g86
tp5061
F0.06188925081433225
s(S'pp'
p5062
S'cd'
p5063
tp5064
F0.00026601104348877516
s(g86
S'wp'
p5065
tp5066
F0.0035845813896390865
s(g405
g646
tp5067
F0.006756756756756757
s(S'nn'
p5068
S'nr'
p5069
tp5070
F0.0003447800303406427
s(g1753
g32
tp5071
F0.0024509803921568627
s(g52
S'nr$'
p5072
tp5073
F2.5158920514583786e-05
s(g15
S"2''/n"
p5074
tp5075
F5.356272462867641e-06
s(g238
S'hv'
p5076
tp5077
F0.0072945372021397305
s(S'wr'
p5078
g67
tp5079
F0.0033657239020682917
s(g125
S'cc'
p5080
tp5081
F0.0029069767441860465
s(g26
g38
tp5082
F0.004735032756048518
s(g4
S"2''/n"
p5083
tp5084
F0.0022935779816513763
s(g884
g19
tp5085
F0.07630522088353414
s(g220
g74
tp5086
F0.06638418079096045
s(g1210
g52
tp5087
F0.08196721311475409
s(g1952
g67
tp5088
F0.002506265664160401
s(g526
S'bed'
p5089
tp5090
F0.004629629629629629
s(g58
S'nn'
p5091
tp5092
F0.03391304347826087
s(S'jj'
p5093
S'fw'
p5094
tp5095
F0.0005989817310572028
s(g1767
g52
tp5096
F0.14285714285714285
s(g43
S'jjs'
p5097
tp5098
F4.9897709695124994e-05
s(g378
S'wr'
p5099
tp5100
F0.02
s(S'vbz'
p5101
S'nns'
p5102
tp5103
F0.11688311688311688
s(S'ppss+be'
p5104
S'ppss+m'
p5105
tp5106
F0.0026086956521739132
s(S'ab'
p5107
S'md'
p5108
tp5109
F0.00016210082671421625
s(g1361
g5
tp5110
F0.15384615384615385
s(g49
S'hv'
p5111
tp5112
F0.006254043562648264
s(g74
S'16'
p5113
tp5114
F7.734729709870288e-06
s(S'pps'
p5115
S'ql'
p5116
tp5117
F0.00016768832330308733
s(S'wrb'
p5118
S'bez'
p5119
tp5120
F0.006756756756756757
s(g86
g5
tp5121
F0.045838448318192976
s(g15
S'jjr+c'
p5122
tp5123
F5.356272462867641e-06
s(g803
g74
tp5124
F0.057188130221838086
s(S'nr'
p5125
S'pps'
p5126
tp5127
F0.00819672131147541
s(S'cd'
p5128
S'vbg'
p5129
tp5130
F0.002207505518763797
s(g2014
g49
tp5131
F0.022988505747126436
s(g803
g43
tp5132
F0.057476231633535005
s(g5051
S'vbd'
p5133
tp5134
F0.0008888888888888889
s(S'ppss+be'
p5135
S'ber'
p5136
tp5137
F0.0017391304347826088
s(S'wd'
p5138
S'wq'
p5139
tp5140
F0.00017295053614666206
s(g4337
g49
tp5141
F0.015730337078651686
s(g2231
S'bed'
p5142
tp5143
F0.008116883116883116
s(S'in'
p5144
S'nns'
p5145
tp5146
F0.04234527687296417
s(g1852
g56
tp5147
F0.028205543848273625
s(g40
S'vb'
p5148
tp5149
F0.05126821370750135
s(g837
S'nn'
p5150
tp5151
F0.375
s(S'wp'
p5152
S'vb'
p5153
tp5154
F0.07958477508650519
s(g74
g26
tp5155
F0.0022972147238314758
s(S'ab'
p5156
S'cc'
p5157
tp5158
F0.0003242016534284325
s(g26
S'ppo'
p5159
tp5160
F6.486346241162354e-05
s(g74
S'wd'
p5161
tp5162
F0.0055303317425572564
s(S'nn'
p5163
S'rb'
p5164
tp5165
F0.0014480761274306992
s(g289
g5
tp5166
F0.2727272727272727
s(S'vbz'
p5167
S'cc'
p5168
tp5169
F0.012987012987012988
s(g32
S'pps+be'
p5170
tp5171
F0.002321895846386319
s(g50
S'od'
p5172
tp5173
F0.00015678896205707118
s(g65
S'nn'
p5174
tp5175
F0.05275779376498801
s(g15
S'ppss+be'
p5176
tp5177
F5.356272462867641e-05
s(g122
S'at'
p5178
tp5179
F0.1
s(S'pps+m'
p5180
g40
tp5181
F0.01948051948051948
s(g125
S'vb'
p5182
tp5183
F0.005813953488372093
s(g52
S'jj'
p5184
tp5185
F0.008117945019372368
s(g32
S'np+m'
p5186
tp5187
F3.685548962517967e-05
s(g1375
S'pps'
p5188
tp5189
F0.020869565217391306
s(g21
g19
tp5190
F0.06265664160401002
s(S'np'
p5191
S'at'
p5192
tp5193
F0.002016709881878421
s(g2790
S'np'
p5194
tp5195
F0.0016233766233766235
s(S'nn'
p5196
g167
tp5197
F0.0012412081092263137
s(S'pps'
p5198
S'ap'
p5199
tp5200
F3.726407184513052e-05
s(S'cd'
p5201
S'vbn'
p5202
tp5203
F0.008830022075055188
s(g256
S'vbn'
p5204
tp5205
F0.0018927444794952682
s(S'pps'
p5206
S'wq'
p5207
tp5208
F0.00016768832330308733
s(S'pps+be'
p5209
g26
tp5210
F0.0012682308180088776
s(S'be'
p5211
S'wp'
p5212
tp5213
F0.005392156862745098
s(S'dt'
p5214
S'wd'
p5215
tp5216
F0.005253310305123777
s(g292
S'nns'
p5217
tp5218
F0.011494252873563218
s(g330
g52
tp5219
F0.060291060291060294
s(g1308
g52
tp5220
F0.008830022075055188
s(g1474
g65
tp5221
F0.009177748642067803
s(g192
g50
tp5222
F0.09090909090909091
s(g58
g43
tp5223
F0.04
s(S'do'
p5224
S'pps+m'
p5225
tp5226
F0.0008012820512820513
s(g2052
S'do'
p5227
tp5228
F0.005012531328320802
s(g625
S'jj'
p5229
tp5230
F0.014492753623188406
s(S'vb'
p5231
S'fw'
p5232
tp5233
F0.0009833302116501218
s(S'wdt+be'
p5234
g86
tp5235
F0.08791208791208792
s(S'dt'
p5236
g32
tp5237
F0.0034542314335060447
s(g928
S'wr'
p5238
tp5239
F0.006329113924050633
s(g15
S'bed'
p5240
tp5241
F0.009003894010080504
s(g1283
S'jj'
p5242
tp5243
F0.04234527687296417
s(g5209
S'ber'
p5244
tp5245
F0.0006341154090044388
s(g300
g50
tp5246
F0.0056903264450434265
s(g803
g2
tp5247
F0.1679631230193028
s(g26
S'wp'
p5248
tp5249
F0.006745800090808847
s(g760
g83
tp5250
F0.005338078291814947
s(g15
S'coating/n'
p5251
tp5252
F5.356272462867641e-06
s(S'pps+m'
p5253
S'pps'
p5254
tp5255
F0.012987012987012988
s(g125
S'vbg'
p5256
tp5257
F0.0029069767441860465
s(g52
S'vb+pp'
p5258
tp5259
F2.5158920514583786e-05
s(g330
S'dt'
p5260
tp5261
F0.004158004158004158
s(g49
S'pn'
p5262
tp5263
F6.161619273545088e-05
s(g167
S'pp'
p5264
tp5265
F0.033820840950639856
s(g994
g43
tp5266
F0.034482758620689655
s(g711
S'be'
p5267
tp5268
F0.16666666666666666
s(S'pps'
p5269
S'jjs'
p5270
tp5271
F3.726407184513052e-05
s(g110
g40
tp5272
F0.016404647983595352
s(g56
S'vbz'
p5273
tp5274
F0.00016061676839062
s(S'dt'
p5275
g167
tp5276
F0.0006476683937823834
s(g52
S'jjr'
p5277
tp5278
F5.031784102916757e-05
s(g32
S'jjr'
p5279
tp5280
F1.8427744812589837e-05
s(g640
S'ex+m'
p5281
tp5282
F0.0016233766233766235
s(g1370
S'wr'
p5283
tp5284
F0.046511627906976744
s(S'vbg'
p5285
g5
tp5286
F0.059027777777777776
s(g86
S'ql'
p5287
tp5288
F0.0004296587282101645
s(g1375
g74
tp5289
F0.05652173913043478
s(S'wrb'
p5290
S'in'
p5291
tp5292
F0.006756756756756757
s(g1375
g67
tp5293
F0.006956521739130435
s(S'pps'
p5294
S'ex+hv'
p5295
tp5296
F1.863203592256526e-05
s(g414
g50
tp5297
F0.006493506493506494
s(g450
g52
tp5298
F0.07692307692307693
s(g50
S'ppss+m'
p5299
tp5300
F0.00047036688617121356
s(g3438
g83
tp5301
F0.006568590195971989
s(S'np'
p5302
S'jj'
p5303
tp5304
F0.010515701526937482
s(g636
S'cc'
p5305
tp5306
F0.002207505518763797
s(S'vb'
p5307
S'bed'
p5308
tp5309
F0.006040457014422176
s(g74
S'wrb'
p5310
tp5311
F2.3204189129610864e-05
s(g1195
g49
tp5312
F0.05263157894736842
s(g457
g5
tp5313
F0.25
s(g50
S'nn'
p5314
tp5315
F0.0625587958607714
s(g4
g74
tp5316
F0.10091743119266056
s(S'pp'
p5317
S'vb+pp'
p5318
tp5319
F8.060940711781064e-06
s(g110
g15
tp5320
F0.08407382091592618
s(S'wrb'
p5321
S'to'
p5322
tp5323
F0.12837837837837837
s(g74
S'wr'
p5324
tp5325
F0.0037977522875463116
s(g223
g223
tp5326
F0.005259697567389875
s(g15
g65
tp5327
F0.009684140612864696
s(g860
S'md'
p5328
tp5329
F0.021052631578947368
s(g15
S'wrb+be'
p5330
tp5331
F1.0712544925735283e-05
s(g460
S'to'
p5332
tp5333
F0.02857142857142857
s(S'ppss+h'
p5334
g4
tp5335
F0.002824858757062147
s(g368
g5
tp5336
F0.05543030686963164
s(S'wp'
p5337
S'hv'
p5338
tp5339
F0.010380622837370242
s(g3432
g50
tp5340
F0.00819672131147541
s(g110
g56
tp5341
F0.021189336978810664
s(g113
g50
tp5342
F0.02702702702702703
s(g388
S'pps'
p5343
tp5344
F0.015472312703583062
s(g40
S'pps+m'
p5345
tp5346
F0.00017988846914912754
s(g985
S'to'
p5347
tp5348
F0.014705882352941176
s(S'nn'
p5349
g646
tp5350
F0.00017239001517032135
s(g1375
g15
tp5351
F0.07391304347826087
s(g1850
g19
tp5352
F0.02857142857142857
s(g884
g32
tp5353
F0.004016064257028112
s(S'nn'
p5354
S'ppss+be'
p5355
tp5356
F0.00017239001517032135
s(S'hv'
p5357
S'jj'
p5358
tp5359
F0.00888585099111415
s(g49
g167
tp5360
F0.0017252533965926246
s(g65
g50
tp5361
F0.005275779376498801
s(g2707
g52
tp5362
F0.10914826498422713
s(S'np'
p5363
g32
tp5364
F0.003457216940363008
s(g4737
S'wd'
p5365
tp5366
F0.002012072434607646
s(g1
S'hv'
p5367
tp5368
F0.004173862982153138
s(g43
g83
tp5369
F0.003991816775609999
s(g2024
g52
tp5370
F0.006514657980456026
s(g3427
S'ppss'
p5371
tp5372
F0.00038000108571738776
s(g110
g74
tp5373
F0.043745727956254275
s(S'dt'
p5374
S'wr'
p5375
tp5376
F0.002662636729994243
s(g49
S'hvd'
p5377
tp5378
F6.161619273545088e-05
s(g1308
S'np'
p5379
tp5380
F0.0640176600441501
s(g65
g167
tp5381
F0.0009592326139088729
s(S'pp'
p5382
S'np$'
p5383
tp5384
F8.867034782959171e-05
s(g1115
S'nn'
p5385
tp5386
F0.08805681974900013
s(g52
S'be'
p5387
tp5388
F0.01615202697036279
s(g38
S'ql'
p5389
tp5390
F0.0006550218340611354
s(g1767
g86
tp5391
F0.14285714285714285
s(g663
g15
tp5392
F0.07712729278720176
s(g4
S'pps+be'
p5393
tp5394
F0.0022935779816513763
s(S'np'
p5395
S'wd'
p5396
tp5397
F0.0036012676462114663
s(g309
g19
tp5398
F0.05916030534351145
s(g32
S'nr+m'
p5399
tp5400
F1.8427744812589837e-05
s(g49
g56
tp5401
F0.025632336177947565
s(g125
S'nn'
p5402
tp5403
F0.05813953488372093
s(g26
S'pps+m'
p5404
tp5405
F6.486346241162354e-05
s(g2713
S'at'
p5406
tp5407
F0.0008012820512820513
s(g906
g4
tp5408
F0.07142857142857142
s(g3739
g125
tp5409
F0.0024488619994237973
s(g977
S'be'
p5410
tp5411
F0.02127659574468085
s(g43
g26
tp5412
F0.0004989770969512499
s(g1446
g5
tp5413
F0.23076923076923078
s(g1017
g83
tp5414
F0.03571428571428571
s(g52
g65
tp5415
F0.00893980308951544
s(g1600
g65
tp5416
F0.006578947368421052
s(S'jj'
p5417
S'hv'
p5418
tp5419
F0.006588799041629231
s(g83
g32
tp5420
F0.015258215962441314
s(g531
g56
tp5421
F0.037728679224797786
s(g74
S'pps+be'
p5422
tp5423
F0.00023204189129610866
s(g1214
g19
tp5424
F0.08386401947930323
s(g977
S'dt'
p5425
tp5426
F0.010638297872340425
s(g2448
g15
tp5427
F0.08333333333333333
s(g80
g43
tp5428
F0.02459016393442623
s(g330
g74
tp5429
F0.032224532224532226
s(S'rb'
p5430
S'ap'
p5431
tp5432
F0.0012618296529968455
s(g928
S'pps+be'
p5433
tp5434
F0.006329113924050633
s(g3246
S'ab'
p5435
tp5436
F0.0026595744680851063
s(g2555
g32
tp5437
F0.012987012987012988
s(g32
g56
tp5438
F0.04907308443592673
s(g2770
S'vbz'
p5439
tp5440
F0.02631578947368421
s(g32
S'nn'
p5441
tp5442
F0.03342792909003796
s(g5015
g167
tp5443
F0.000980392156862745
s(g385
S'pp$'
p5444
tp5445
F0.024691358024691357
s(S'pps+be'
p5446
g65
tp5447
F0.007609384908053266
s(g4
g67
tp5448
F0.0022935779816513763
s(S'vbg'
p5449
S'vbz'
p5450
tp5451
F0.003472222222222222
s(S'pp'
p5452
S'29/c'
p5453
tp5454
F8.060940711781064e-06
s(g256
g83
tp5455
F0.0056782334384858045
s(g1173
g19
tp5456
F0.10714285714285714
s(g56
S'doz'
p5457
tp5458
F8.030838419531e-05
s(S'pps'
p5459
S'pn'
p5460
tp5461
F9.316017961282629e-05
s(g4517
g26
tp5462
F0.0006087282262595992
s(g65
S'bed'
p5463
tp5464
F0.0019184652278177458
s(S'vb'
p5465
S'ql'
p5466
tp5467
F9.365049634763064e-05
s(g1510
g43
tp5468
F0.01694915254237288
s(g2957
g5
tp5469
F0.3333333333333333
s(g3012
S'nn'
p5470
tp5471
F0.16666666666666666
s(g86
S'od'
p5472
tp5473
F9.820770930518046e-05
s(g3516
g67
tp5474
F0.007052389176741509
s(S'ppss+m'
p5475
S'bed'
p5476
tp5477
F0.0024429967426710096
s(g4076
g167
tp5478
F0.0023048112935753384
s(g167
S'dt'
p5479
tp5480
F0.007312614259597806
s(S'jj'
p5481
S'cc'
p5482
tp5483
F0.003893381251871818
s(g2046
g5
tp5484
F0.047619047619047616
s(g2448
g119
tp5485
F0.041666666666666664
s(g52
S'nn+hv'
p5486
tp5487
F8.386306838194597e-06
s(g2
S'bez'
p5488
tp5489
F2.1597339207809597e-05
s(g15
g74
tp5490
F0.06039197201883265
s(g1132
S'bed'
p5491
tp5492
F0.008267142162425028
s(g74
S'ppo'
p5493
tp5494
F1.5469459419740576e-05
s(S'nn'
p5495
g26
tp5496
F0.000517170045510964
s(g40
S'ppl'
p5497
tp5498
F0.0008994423457456377
s(g3227
S'hv'
p5499
tp5500
F0.006944444444444444
s(g74
S'nns'
p5501
tp5502
F0.0020883770216649777
s(g1375
g19
tp5503
F0.0808695652173913
s(g38
g19
tp5504
F0.06419213973799126
s(g52
S'uh'
p5505
tp5506
F2.5158920514583786e-05
s(g56
S'in'
p5507
tp5508
F0.0018470928364921297
s(g5337
g74
tp5509
F0.05997693194925029
s(g86
S'nn+i'
p5510
tp5511
F1.2275963663147557e-05
s(S'wr'
p5512
S'cd'
p5513
tp5514
F0.0005428586938819825
s(S'np'
p5515
S'rb'
p5516
tp5517
F0.0010083549409392106
s(g994
S'np'
p5518
tp5519
F0.034482758620689655
s(S'np'
p5520
S'rp'
p5521
tp5522
F0.0002881014116969173
s(g32
S'do'
p5523
tp5524
F0.005215051781962923
s(g1126
S'dt'
p5525
tp5526
F0.0037460198539052258
s(g88
g74
tp5527
F0.05362776025236593
s(g3112
S'bez'
p5528
tp5529
F0.0011534025374855825
s(g2
g56
tp5530
F0.022331648740875124
s(g74
g67
tp5531
F0.0041767540433299555
s(S'vbn'
p5532
S'bed'
p5533
tp5534
F0.0033783783783783786
s(g52
g19
tp5535
F0.08304959661864109
s(g531
S'pp'
p5536
tp5537
F0.05710873459638456
s(g38
S'do'
p5538
tp5539
F0.0013100436681222707
s(g32
S'ppl'
p5540
tp5541
F0.00018427744812589837
s(g26
g56
tp5542
F0.0231562560809496
s(S'ppss+be'
p5543
S'pps+be'
p5544
tp5545
F0.0008695652173913044
s(g179
g83
tp5546
F0.03908794788273615
s(g15
g26
tp5547
F0.0006641777853955875
s(g86
g56
tp5548
F0.029965627301743188
s(g71
S'nn'
p5549
tp5550
F0.10526315789473684
s(g1288
g56
tp5551
F0.14285714285714285
s(S'pp'
p5552
g558
tp5553
F8.060940711781064e-06
s(g208
S'nn'
p5554
tp5555
F0.014705882352941176
s(g3755
S'ab'
p5556
tp5557
F0.0032943995208146153
s(g928
S'jj'
p5558
tp5559
F0.006329113924050633
s(S'pp'
p5560
S'nns'
p5561
tp5562
F0.0013784208617145621
s(g223
g4
tp5563
F0.0039447731755424065
s(g1361
g40
tp5564
F0.01098901098901099
s(g1755
g2
tp5565
F0.08333333333333333
s(g4337
S'hv'
p5566
tp5567
F0.015730337078651686
s(S'ppss+m'
p5568
S'nns'
p5569
tp5570
F0.0024429967426710096
s(S'pps'
p5571
g223
tp5572
F0.0002608485029159136
s(g3761
S'be'
p5573
tp5574
F0.016709881878421203
s(g371
g38
tp5575
F0.0028771510775745072
s(g107
g19
tp5576
F0.10096153846153846
s(g56
S"64''/n"
p5577
tp5578
F0.00016061676839062
s(g88
g15
tp5579
F0.09589905362776026
s(g15
g56
tp5580
F0.021783960106482696
s(g26
S'pp$'
p5581
tp5582
F0.00012972692482324707
s(g307
g5
tp5583
F0.04
s(g32
S'dt'
p5584
tp5585
F0.004109387093207534
s(g56
S'wq'
p5586
tp5587
F0.00040154192097654996
s(g3634
g4
tp5588
F0.011627906976744186
s(S'np'
p5589
S'bed'
p5590
tp5591
F0.012100259291270527
s(g32
S'wql'
p5592
tp5593
F1.8427744812589837e-05
s(g125
S'to'
p5594
tp5595
F0.005813953488372093
s(S'rb'
p5596
S'nn$'
p5597
tp5598
F0.0012618296529968455
s(g52
g50
tp5599
F0.006658727629526509
s(g67
g32
tp5600
F0.0019267822736030828
s(g144
S'do'
p5601
tp5602
F0.003205128205128205
s(g935
S'wd'
p5603
tp5604
F0.003417634996582365
s(S'jj'
p5605
g4
tp5606
F0.0032943995208146153
s(S'pps+be'
p5607
S'under/j'
p5608
tp5609
F0.0006341154090044388
s(g4
S'be'
p5610
tp5611
F0.027522935779816515
s(g813
g19
tp5612
F0.12837837837837837
s(g83
g43
tp5613
F0.05046948356807512
s(g1132
S'in'
p5614
tp5615
F0.00129680661371373
s(g125
g52
tp5616
F0.0029069767441860465
s(g56
S'ql'
p5617
tp5618
F0.00040154192097654996
s(g977
g74
tp5619
F0.0425531914893617
s(g884
g43
tp5620
F0.012048192771084338
s(g932
g167
tp5621
F0.0011979634621144056
s(g3010
S'cc'
p5622
tp5623
F0.00819672131147541
s(g2620
S'vb'
p5624
tp5625
F0.2
s(S'vb'
p5626
S'ab'
p5627
tp5628
F0.0027158643940812886
s(S'pps+m'
p5629
g49
tp5630
F0.008116883116883116
s(g1952
S'jj'
p5631
tp5632
F0.012531328320802004
s(g26
S'do'
p5633
tp5634
F0.0010378153985859766
s(g1839
S'dt'
p5635
tp5636
F0.006862745098039216
s(g32
S'bedz'
p5637
tp5638
F0.0002948439170014374
s(g74
S'np+be'
p5639
tp5640
F1.5469459419740576e-05
s(g1617
S'pps'
p5641
tp5642
F0.013513513513513514
s(g86
g67
tp5643
F0.0034249938620181685
s(g3471
g15
tp5644
F0.07692307692307693
s(S'ab'
p5645
S'vbn'
p5646
tp5647
F0.00016210082671421625
s(g1040
S'vbg'
p5648
tp5649
F0.05263157894736842
s(g15
S"8''/n"
p5650
tp5651
F5.356272462867641e-06
s(g1375
S'ab'
p5652
tp5653
F0.00608695652173913
s(S'cd'
p5654
S'nns'
p5655
tp5656
F0.03090507726269316
s(g15
S'nn'
p5657
tp5658
F0.07359518363980139
s(g746
g19
tp5659
F0.14583333333333334
s(g74
S'4/c'
p5660
tp5661
F2.3204189129610864e-05
s(g10
g19
tp5662
F0.08139534883720931
s(g1288
g4
tp5663
F0.14285714285714285
s(g1132
S'np'
p5664
tp5665
F0.005835629761711785
s(g1753
S'wr'
p5666
tp5667
F0.0024509803921568627
s(g944
g223
tp5668
F0.0017391304347826088
s(S'do'
p5669
S'dt'
p5670
tp5671
F0.003205128205128205
s(g5605
g65
tp5672
F0.005091344713986224
s(g1528
g83
tp5673
F0.003816793893129771
s(g52
S'8/c'
p5674
tp5675
F8.386306838194597e-06
s(g5349
g125
tp5676
F0.00017239001517032135
s(g368
S'pp'
p5677
tp5678
F0.042723258370442135
s(g56
S'ppss+m'
p5679
tp5680
F0.0008030838419530999
s(S'wd'
p5681
S'np$'
p5682
tp5683
F0.00017295053614666206
s(g928
g83
tp5684
F0.05063291139240506
s(g267
g38
tp5685
F0.0011514104778353484
s(g269
g2
tp5686
F0.08333333333333333
s(g2652
S'nn'
p5687
tp5688
F0.05813953488372093
s(S'dt+be'
p5689
S'fw'
p5690
tp5691
F0.002506265664160401
s(g3432
S'hv'
p5692
tp5693
F0.01639344262295082
s(g15
S'pn'
p5694
tp5695
F3.749390724007349e-05
s(S'wr'
p5696
g167
tp5697
F0.001954291297975137
s(g3273
S'ql'
p5698
tp5699
F0.0017777777777777779
s(g107
g56
tp5700
F0.09775641025641026
s(g86
S'wrb+bez'
p5701
tp5702
F1.2275963663147557e-05
s(S'cs'
p5703
S'nns'
p5704
tp5705
F0.010526315789473684
s(g86
S'nn+hv'
p5706
tp5707
F1.2275963663147557e-05
s(S'wr'
p5708
S'wq'
p5709
tp5710
F0.00016285760816459475
s(S'ppss+h'
p5711
S'pps+be'
p5712
tp5713
F0.002824858757062147
s(S'ex+be'
p5714
S'ab'
p5715
tp5716
F0.002012072434607646
s(S'dt+be'
p5717
g83
tp5718
F0.022556390977443608
s(g86
S'hvd'
p5719
tp5720
F6.137981831573779e-05
s(g4877
S'nn'
p5721
tp5722
F0.192
s(g1008
g5
tp5723
F0.2857142857142857
s(g15
S'wd'
p5724
tp5725
F0.004740301129637863
s(g625
g15
tp5726
F0.014492753623188406
s(g811
g86
tp5727
F0.04
s(S'vb+pp'
p5728
S'nn+be'
p5729
tp5730
F0.0078125
s(g803
S'vb'
p5731
tp5732
F0.060933448573898014
s(g21
S'pp'
p5733
tp5734
F0.07518796992481203
s(g1547
g40
tp5735
F0.012658227848101266
s(g110
g5
tp5736
F0.043745727956254275
s(g531
S'dt'
p5737
tp5738
F0.003474295640844688
s(g2231
g15
tp5739
F0.08766233766233766
s(g26
g52
tp5740
F0.10910034377635078
s(g2731
S'rb'
p5741
tp5742
F0.0013571467347049562
s(g988
S'nn'
p5743
tp5744
F0.05701754385964912
s(g80
S'jj'
p5745
tp5746
F0.02459016393442623
s(g223
S'md'
p5747
tp5748
F0.006574621959237344
s(g26
S'fw'
p5749
tp5750
F0.000972951936174353
s(g5430
S'rp'
p5751
tp5752
F0.0006309148264984228
s(S'vb'
p5753
S'wq'
p5754
tp5755
F9.365049634763064e-05
s(g67
S'wd'
p5756
tp5757
F0.0038535645472061657
s(g531
g65
tp5758
F0.013625753216437761
s(g32
S'vbg+t'
p5759
tp5760
F0.000110566468875539
s(S'nn'
p5761
S'or/c'
p5762
tp5763
F6.895600606812854e-05
s(g32
g223
tp5764
F0.0042752367965208414
s(g2
S'jjr'
p5765
tp5766
F1.0798669603904798e-05
s(S'pps+be'
p5767
g67
tp5768
F0.0012682308180088776
s(g179
S'pp'
p5769
tp5770
F0.06026058631921824
s(g3041
g19
tp5771
F0.23076923076923078
s(g269
g67
tp5772
F0.004629629629629629
s(g74
g1137
tp5773
F1.5469459419740576e-05
s(g5015
S'rp'
p5774
tp5775
F0.000980392156862745
s(g698
g2
tp5776
F0.19117647058823528
s(g3669
g52
tp5777
F0.14285714285714285
s(g152
g50
tp5778
F0.009565217391304347
s(g300
S'nn'
p5779
tp5780
F0.12428870919436957
s(g2126
g2
tp5781
F0.1492563782193382
s(g4541
g86
tp5782
F0.04317042723258371
s(g2455
S'nns'
p5783
tp5784
F0.002050580997949419
s(g4208
g38
tp5785
F0.004016064257028112
s(g3615
S'ni'
p5786
tp5787
F0.7966101694915254
s(g4415
g65
tp5788
F0.0158744946060256
s(g4243
S'jj'
p5789
tp5790
F0.011037527593818985
s(g56
S'nn+be'
p5791
tp5792
F8.030838419531e-05
s(g32
S'jj'
p5793
tp5794
F0.004183098072457893
s(S'ppss+be'
p5795
S'at'
p5796
tp5797
F0.0008695652173913044
s(S'nns'
p5798
g43
tp5799
F0.01975051975051975
s(g292
g2
tp5800
F0.22988505747126436
s(g32
S'nr'
p5801
tp5802
F0.00012899421368812886
s(g32
S'wdt+do+pp'
p5803
tp5804
F1.8427744812589837e-05
s(g3036
g38
tp5805
F0.012345679012345678
s(g5607
S'cd'
p5806
tp5807
F0.0006341154090044388
s(g52
S'ppss+hv'
p5808
tp5809
F5.031784102916757e-05
s(g52
g67
tp5810
F0.002968752620720887
s(S'pps'
p5811
S'rb'
p5812
tp5813
F0.0014719308378826554
s(g536
S'np'
p5814
tp5815
F0.01098901098901099
s(g262
S'nn'
p5816
tp5817
F0.07602528772896741
s(g2
g167
tp5818
F0.0016521964493974343
s(g1880
S'wp'
p5819
tp5820
F0.0022471910112359553
s(g330
S'nn'
p5821
tp5822
F0.11226611226611227
s(S'nn'
p5823
S'cc'
p5824
tp5825
F0.002172114191146049
s(g157
S'jj'
p5826
tp5827
F0.02027027027027027
s(S'pps+be'
p5828
g43
tp5829
F0.06404565630944832
s(g1617
g38
tp5830
F0.013513513513513514
s(g3126
g19
tp5831
F0.25
s(g86
S'wdt+be'
p5832
tp5833
F1.2275963663147557e-05
s(g1615
S'to'
p5834
tp5835
F0.006756756756756757
s(g15
S'jjs'
p5836
tp5837
F2.6781362314338206e-05
s(g1137
S'in'
p5838
tp5839
F0.09090909090909091
s(S'dt'
p5840
S'vbg'
p5841
tp5842
F7.196315486470927e-05
s(S'ppss+hv'
p5843
g86
tp5844
F0.08032128514056225
s(g43
g5
tp5845
F0.04999750511451524
s(g223
g5
tp5846
F0.08744247205785667
s(g1955
S'pp$'
p5847
tp5848
F0.0026666666666666666
s(g2
S'dt'
p5849
tp5850
F0.0031748088635480108
s(g15
S'rb'
p5851
tp5852
F0.0011890924867566162
s(g77
S'pps'
p5853
tp5854
F0.0625
s(g2499
S'md'
p5855
tp5856
F0.000651430432658379
s(g380
S'to'
p5857
tp5858
F0.0006309148264984228
s(g2224
g2
tp5859
F0.0945945945945946
s(g5828
g50
tp5860
F0.022828154724159798
s(g32
g38
tp5861
F0.0035196992592046584
s(g238
S'wr'
p5862
tp5863
F0.0022694115739990274
s(g1528
g2
tp5864
F0.14694656488549618
s(g3083
g19
tp5865
F0.2
s(g223
S'np+be'
p5866
tp5867
F0.0006574621959237344
s(g473
g5
tp5868
F0.016286644951140065
s(S'nn'
p5869
S'to'
p5870
tp5871
F3.447800303406427e-05
s(g1350
S'vb'
p5872
tp5873
F0.16666666666666666
s(S'pp$'
p5874
g52
tp5875
F0.06172839506172839
s(g32
S'at'
p5876
tp5877
F0.0006265433236280544
s(g3510
S'bed'
p5878
tp5879
F0.004101161995898838
s(S'rb'
p5880
S'rb'
p5881
tp5882
F0.006309148264984227
s(g223
S'pps+be'
p5883
tp5884
F0.0026298487836949377
s(g554
g74
tp5885
F0.03288888888888889
s(g4423
g223
tp5886
F0.0003277767372167072
s(g43
S'in'
p5887
tp5888
F0.0009979541939024999
s(g15
S'od'
p5889
tp5890
F0.00023031971590330857
s(S'dt+be'
p5891
S'ppss+m'
p5892
tp5893
F0.002506265664160401
s(g1350
S'at'
p5894
tp5895
F0.05555555555555555
s(g65
S'pps'
p5896
tp5897
F0.02541966426858513
s(S'np'
p5898
S'vbn'
p5899
tp5900
F0.0012964563526361278
s(S'pps'
p5901
S'hvd'
p5902
tp5903
F0.00014905628738052208
s(g122
S'vbn'
p5904
tp5905
F0.2
s(S'np'
p5906
S'pps+be'
p5907
tp5908
F0.0002881014116969173
s(g1528
S'pp'
p5909
tp5910
F0.0648854961832061
s(g15
S'be'
p5911
tp5912
F0.02116798877325292
s(g808
S'rb'
p5913
tp5914
F0.00196078431372549
s(S'pps'
p5915
S'md+h'
p5916
tp5917
F1.863203592256526e-05
s(S'pps'
p5918
S'np$'
p5919
tp5920
F9.316017961282629e-05
s(g2126
g52
tp5921
F0.10280117689734392
s(g2
g558
tp5922
F2.1597339207809597e-05
s(g223
S'pps+m'
p5923
tp5924
F0.0006574621959237344
s(S'jj'
p5925
S'jjt'
p5926
tp5927
F0.0002994908655286014
s(S'rb'
p5928
S'fw'
p5929
tp5930
F0.0031545741324921135
s(g2
S"2''/n"
p5931
tp5932
F1.0798669603904798e-05
s(g3432
S'wp'
p5933
tp5934
F0.00819672131147541
s(g5337
S'nn'
p5935
tp5936
F0.049596309111880045
s(g405
S'nns'
p5937
tp5938
F0.033783783783783786
s(S'ppss+m'
p5939
g167
tp5940
F0.0008143322475570033
s(g26
S'od'
p5941
tp5942
F6.486346241162354e-05
s(g4208
S'wp'
p5943
tp5944
F0.004016064257028112
s(g133
g4
tp5945
F0.011968085106382979
s(g49
S'bez'
p5946
tp5947
F0.0001540404818386272
s(g2
g40
tp5948
F0.012461664722906138
s(g2190
S'at'
p5949
tp5950
F0.04
s(g2
g223
tp5951
F9.71880264351432e-05
s(g269
S'be'
p5952
tp5953
F0.004629629629629629
s(g220
g56
tp5954
F0.046610169491525424
s(g1955
g83
tp5955
F0.006222222222222222
s(g15
S'pps+m'
p5956
tp5957
F1.6068817388602925e-05
s(g167
S'vb'
p5958
tp5959
F0.06398537477148081
s(g52
g2
tp5960
F0.178158702470606
s(g2224
g43
tp5961
F0.02364864864864865
s(g74
S'vb+pp'
p5962
tp5963
F3.8673648549351444e-05
s(g13
g5
tp5964
F0.0633116883116883
s(S'ppss+m'
p5965
S'rb'
p5966
tp5967
F0.005700325732899023
s(S'vb'
p5968
S'4'
p5969
tp5970
F4.682524817381532e-05
s(g32
S'wps+m'
p5971
tp5972
F5.52832344377695e-05
s(g1350
S'md'
p5973
tp5974
F0.1111111111111111
s(g86
S'wd'
p5975
tp5976
F0.005008593174564203
s(g223
g86
tp5977
F0.04799474030243261
s(S'jj'
p5978
S'nn$'
p5979
tp5980
F0.0005989817310572028
s(g49
g32
tp5981
F0.004005052527804307
s(g15
S'3/c'
p5982
tp5983
F5.356272462867641e-06
s(g86
S'nn+be'
p5984
tp5985
F1.2275963663147557e-05
s(S'vb'
p5986
g50
tp5987
F0.0061809327589436225
s(g368
g43
tp5988
F0.04861098172197276
s(S'in'
p5989
S'jjr'
p5990
tp5991
F0.003257328990228013
s(S'at'
p5992
S'nr'
p5993
tp5994
F0.0035555555555555557
s(g1707
S'wd'
p5995
tp5996
F0.0038904198411411897
s(g223
S'ab'
p5997
tp5998
F0.006574621959237344
s(S'pps'
p5999
g26
tp6000
F0.0007266494009800451
s(g24
S'vb'
p6001
tp6002
F0.08433734939759036
s(g5798
S'rb'
p6003
tp6004
F0.0031185031185031187
s(g32
S'cd'
p6005
tp6006
F0.0001474219585007187
s(S'nns'
p6007
S'at'
p6008
tp6009
F0.012474012474012475
s(g86
S'nr$'
p6010
tp6011
F2.4551927326295114e-05
s(S'ppss+m'
p6012
S'fw'
p6013
tp6014
F0.0008143322475570033
s(g32
S'wrb+do'
p6015
tp6016
F9.213872406294918e-05
s(g2112
g83
tp6017
F0.003989361702127659
s(g721
S'nns'
p6018
tp6019
F0.012345679012345678
s(S'wr'
p6020
S'pps+hv'
p6021
tp6022
F5.428586938819825e-05
s(g1370
g65
tp6023
F0.023255813953488372
s(S'at'
p6024
g40
tp6025
F0.0017777777777777779
s(g269
g74
tp6026
F0.032407407407407406
s(S'pps+hv'
p6027
g67
tp6028
F0.003816793893129771
s(g5307
S'hv'
p6029
tp6030
F0.004167447087469563
s(g405
S'vbg'
p6031
tp6032
F0.013513513513513514
s(g570
S'wp'
p6033
tp6034
F0.007978723404255319
s(S'vb'
p6035
S'ppss'
p6036
tp6037
F0.00014047574452144597
s(g1214
g43
tp6038
F0.0522569769619779
s(g1805
g4
tp6039
F0.00559144454698442
s(g4481
S'fw'
p6040
tp6041
F0.008988764044943821
s(g74
S'do+pps'
p6042
tp6043
F7.734729709870288e-06
s(S'md'
p6044
S'nns'
p6045
tp6046
F0.006329113924050633
s(g2687
g38
tp6047
F0.00782608695652174
s(g554
g65
tp6048
F0.0044444444444444444
s(g32
S'np+be'
p6049
tp6050
F0.00018427744812589837
s(S'vbg'
p6051
S'be'
p6052
tp6053
F0.003472222222222222
s(S'pps+be'
p6054
S'dt+be'
p6055
tp6056
F0.0006341154090044388
s(S'wp'
p6057
S'hvz'
p6058
tp6059
F0.0011534025374855825
s(g56
S'pps'
p6060
tp6061
F0.00915515579826534
s(S'nn'
p6062
S'ql'
p6063
tp6064
F0.0002068680182043856
s(g2506
S'vbn'
p6065
tp6066
F0.000980392156862745
s(S'dt+be'
p6067
S'pps+hv'
p6068
tp6069
F0.002506265664160401
s(g26
S'pps'
p6070
tp6071
F0.005707984692222871
s(S'nn'
p6072
S'wq'
p6073
tp6074
F3.447800303406427e-05
s(g38
S'np'
p6075
tp6076
F0.00480349344978166
s(g309
g167
tp6077
F0.0019083969465648854
s(g26
S'jj'
p6078
tp6079
F0.005513394304988001
s(g26
g4
tp6080
F0.008691703963157554
s(g4479
S'dt+be'
p6081
tp6082
F0.002012072434607646
s(g32
S'np+hv'
p6083
tp6084
F1.8427744812589837e-05
s(g1195
S'hv'
p6085
tp6086
F0.05263157894736842
s(g4393
S'ab'
p6087
tp6088
F0.013513513513513514
s(g74
S'in+i'
p6089
tp6090
F7.734729709870288e-06
s(g800
S'pps+m'
p6091
tp6092
F0.0008984725965858042
s(g5880
S'np'
p6093
tp6094
F0.011987381703470032
s(g65
g19
tp6095
F0.1093525179856115
s(g40
S'fw'
p6096
tp6097
F0.0005396654074473826
s(g2448
g19
tp6098
F0.08333333333333333
s(g473
S'be'
p6099
tp6100
F0.003257328990228013
s(g32
S'vbz'
p6101
tp6102
F1.8427744812589837e-05
s(g5167
S'vbz'
p6103
tp6104
F0.012987012987012988
s(S'fw'
p6105
S'pps'
p6106
tp6107
F0.006578947368421052
s(g1615
g646
tp6108
F0.010135135135135136
s(g2126
S'vb'
p6109
tp6110
F0.08942001531578735
s(S'nn$'
p6111
g558
tp6112
F0.07407407407407407
s(g5045
S'wd'
p6113
tp6114
F0.0031705770450221942
s(g15
S'ex+m'
p6115
tp6116
F5.356272462867641e-06
s(g2126
S'bed'
p6117
tp6118
F0.01604127201644432
s(g74
S'ppss+h'
p6119
tp6120
F0.00011602094564805433
s(g49
S'np$'
p6121
tp6122
F9.242428910317632e-05
s(g6024
S'bed'
p6123
tp6124
F0.0017777777777777779
s(S'md'
p6125
S'rb'
p6126
tp6127
F0.006329113924050633
s(g86
g50
tp6128
F0.007795236926098699
s(g32
S'doz'
p6129
tp6130
F0.00040541038587697635
s(g50
S'ql'
p6131
tp6132
F0.00031357792411414236
s(g6027
g65
tp6133
F0.003816793893129771
s(g2464
S'od'
p6134
tp6135
F0.010526315789473684
s(g220
S'pp'
p6136
tp6137
F0.0635593220338983
s(g1045
S'nns'
p6138
tp6139
F0.25
s(g49
S'ppss+m'
p6140
tp6141
F9.242428910317632e-05
s(S'bed'
p6142
S'nr'
p6143
tp6144
F0.0044943820224719105
s(g1195
g5
tp6145
F0.05263157894736842
s(g32
S'nn+m'
p6146
tp6147
F1.8427744812589837e-05
s(g3967
S'cd'
p6148
tp6149
F0.0625
s(S'dt'
p6150
g558
tp6151
F7.196315486470927e-05
s(g2
g4
tp6152
F0.004243877154334586
s(S'ppss+be'
p6153
S'nns'
p6154
tp6155
F0.0008695652173913044
s(g74
S'3/c'
p6156
tp6157
F7.734729709870288e-06
s(S'ex+be'
p6158
g49
tp6159
F0.014084507042253521
s(g26
g167
tp6160
F0.0007134980865278589
s(g1283
S'dti'
p6161
tp6162
F0.009771986970684038
s(S'ppss+m'
p6163
S'nns+m'
p6164
tp6165
F0.0008143322475570033
s(g52
g86
tp6166
F0.02784253870280606
s(g1341
S'ab'
p6167
tp6168
F0.0058823529411764705
s(g74
g4
tp6169
F0.0069921956577227405
s(g572
g56
tp6170
F0.1
s(g49
S'wp'
p6171
tp6172
F0.00418990110601066
s(g32
g15
tp6173
F0.06059042494379538
s(g67
g83
tp6174
F0.007707129094412331
s(g904
g83
tp6175
F0.011534025374855825
s(S'pp'
p6176
S'ppss+h'
p6177
tp6178
F8.060940711781066e-05
s(g220
g2
tp6179
F0.1115819209039548
s(g269
g5
tp6180
F0.013888888888888888
s(S'vb'
p6181
S'np$'
p6182
tp6183
F0.00018730099269526128
s(g220
g40
tp6184
F0.025423728813559324
s(g1852
g15
tp6185
F0.09012805965310423
s(g40
g32
tp6186
F0.003957546321280806
s(g32
S'abn'
p6187
tp6188
F3.685548962517967e-05
s(g2
S'nn'
p6189
tp6190
F0.05982462960563258
s(g50
g32
tp6191
F0.004546879899655064
s(g50
g38
tp6192
F0.001724678582627783
s(g2358
S'jj'
p6193
tp6194
F0.01077996195307546
s(g67
g40
tp6195
F0.017341040462427744
s(g223
S'vb+pp'
p6196
tp6197
F0.0026298487836949377
s(g86
S'wq'
p6198
tp6199
F0.00018413945494721336
s(g86
S'jjr'
p6200
tp6201
F2.4551927326295114e-05
s(g49
g74
tp6202
F0.0600757879170646
s(g49
g67
tp6203
F0.0027111124803598386
s(g378
S'nn'
p6204
tp6205
F0.02
s(g49
S'pps'
p6206
tp6207
F0.006870205490002773
s(g125
S'cd'
p6208
tp6209
F0.11046511627906977
s(g86
S'rp'
p6210
tp6211
F1.2275963663147557e-05
s(S'pps'
p6212
g4
tp6213
F0.005012017663170055
s(g43
S'pn'
p6214
tp6215
F9.979541939024999e-05
s(g3463
S'nn'
p6216
tp6217
F0.6
s(g86
g74
tp6218
F0.06075374416891726
s(g531
g52
tp6219
F0.09223169209054884
s(g74
S'wps+be'
p6220
tp6221
F2.3204189129610864e-05
s(g74
S'ppl'
p6222
tp6223
F0.0003790017557836441
s(S'bed'
p6224
g83
tp6225
F0.01348314606741573
s(g86
S'cc'
p6226
tp6227
F0.0002823471642523938
s(S'ppss+hv'
p6228
S'dt'
p6229
tp6230
F0.004016064257028112
s(g18
g5
tp6231
F0.3333333333333333
s(g640
S'wr'
p6232
tp6233
F0.006493506493506494
s(S'be'
p6234
S'hv'
p6235
tp6236
F0.0024509803921568627
s(g26
S'cc'
p6237
tp6238
F0.00025945384964649415
s(g50
g4
tp6239
F0.005801191596111634
s(g1115
g19
tp6240
F0.08819473176113639
s(S'at'
p6241
S'ab'
p6242
tp6243
F0.0008888888888888889
s(S'wd'
p6244
S'dod'
p6245
tp6246
F0.00017295053614666206
s(g3273
S'bez'
p6247
tp6248
F0.013333333333333334
s(g2055
S'pps'
p6249
tp6250
F0.017122103078519545
s(g26
S'md'
p6251
tp6252
F0.00025945384964649415
s(g223
S'abn'
p6253
tp6254
F0.0006574621959237344
s(g43
g119
tp6255
F4.9897709695124994e-05
s(S'at'
p6256
S'ber'
p6257
tp6258
F0.0008888888888888889
s(g928
S'pps'
p6259
tp6260
F0.0379746835443038
s(g6228
S'pps+hv'
p6261
tp6262
F0.004016064257028112
s(g167
S'ppss+h'
p6263
tp6264
F0.0018281535648994515
s(g1329
S'ap'
p6265
tp6266
F0.125
s(g2046
g43
tp6267
F0.047619047619047616
s(g50
S'dod'
p6268
tp6269
F0.00015678896205707118
s(g2707
g43
tp6270
F0.045425867507886436
s(g24
g5
tp6271
F0.05220883534136546
s(g167
g74
tp6272
F0.051188299817184646
s(g2071
g15
tp6273
F0.09701965757767914
s(g86
S'wps'
p6274
tp6275
F1.2275963663147557e-05
s(g26
g43
tp6276
F0.05792307193357982
s(g2358
S'be'
p6277
tp6278
F0.009511731135066582
s(g67
S'dt'
p6279
tp6280
F0.005780346820809248
s(S'pps'
p6281
S'bez'
p6282
tp6283
F7.452814369026104e-05
s(g50
g49
tp6284
F0.007682659140796488
s(S'pps'
p6285
S'wrb'
p6286
tp6287
F5.5896107767695777e-05
s(g65
S'hv'
p6288
tp6289
F0.003357314148681055
s(g38
S'pp'
p6290
tp6291
F0.03777292576419214
s(g2055
g67
tp6292
F0.005534417156693186
s(g74
S'bedz'
p6293
tp6294
F0.00016242932390727607
s(g1850
g43
tp6295
F0.02857142857142857
s(g52
S'ap'
p6296
tp6297
F3.3545227352778386e-05
s(g74
S'wps+m'
p6298
tp6299
F1.5469459419740576e-05
s(g6067
S'be'
p6300
tp6301
F0.010025062656641603
s(g4559
S'wr'
p6302
tp6303
F0.0002994908655286014
s(g1177
S'np'
p6304
tp6305
F0.006329113924050633
s(g192
g5
tp6306
F0.09090909090909091
s(S'nn'
p6307
g119
tp6308
F0.0013101641152944421
s(g15
S'wps'
p6309
tp6310
F1.0712544925735283e-05
s(g4
S'cd'
p6311
tp6312
F0.0045871559633027525
s(g38
S'pps+hv'
p6313
tp6314
F0.0002183406113537118
s(g330
g56
tp6315
F0.013513513513513514
s(g38
S'nn$'
p6316
tp6317
F0.0002183406113537118
s(g2473
S'bez'
p6318
tp6319
F0.0005989817310572028
s(g460
S'vb'
p6320
tp6321
F0.02857142857142857
s(g167
S'be'
p6322
tp6323
F0.021937842778793418
s(S'hv'
p6324
g38
tp6325
F0.000683526999316473
s(g2071
g74
tp6326
F0.06721623335447051
s(g40
g83
tp6327
F0.003957546321280806
s(g378
S'np'
p6328
tp6329
F0.1
s(g32
S'ppss+v'
p6330
tp6331
F1.8427744812589837e-05
s(g4133
S'jj'
p6332
tp6333
F0.05555555555555555
s(g2
S'l/n'
p6334
tp6335
F2.1597339207809597e-05
s(S'pps'
p6336
S'od'
p6337
tp6338
F0.0001304242514579568
s(g15
g2
tp6339
F0.18683749604974906
s(g15
S'active/j'
p6340
tp6341
F5.356272462867641e-06
s(g1446
g83
tp6342
F0.15384615384615385
s(S'wq'
p6343
S'wq'
p6344
tp6345
F0.0013297872340425532
s(g460
S'in'
p6346
tp6347
F0.02857142857142857
s(g1427
g43
tp6348
F0.05914908336215842
s(g882
g2
tp6349
F0.15588235294117647
s(g26
S'wps+m'
p6350
tp6351
F6.486346241162354e-05
s(g1173
S'pp'
p6352
tp6353
F0.10714285714285714
s(g1244
S'nns'
p6354
tp6355
F0.0013297872340425532
s(g309
S'hvd'
p6356
tp6357
F0.003816793893129771
s(g110
S'pp'
p6358
tp6359
F0.056049213943950786
s(g122
g5
tp6360
F0.1
s(g865
S'at'
p6361
tp6362
F0.02666666666666667
s(g52
S'ex+hv'
p6363
tp6364
F8.386306838194597e-06
s(S'vb'
p6365
S'od'
p6366
tp6367
F0.00018730099269526128
s(g110
g86
tp6368
F0.04442925495557074
s(S'np'
p6369
S'vbg'
p6370
tp6371
F0.0007202535292422932
s(g262
g52
tp6372
F0.1147673853136651
s(g167
g2
tp6373
F0.16087751371115175
s(g4445
S'cd'
p6374
tp6375
F0.0008143322475570033
s(g988
g56
tp6376
F0.013157894736842105
s(g74
S'vbd'
p6377
tp6378
F1.5469459419740576e-05
s(g385
g19
tp6379
F0.13580246913580246
s(g15
S'watt/n'
p6380
tp6381
F5.356272462867641e-06
s(g65
S'nr'
p6382
tp6383
F0.00047961630695443646
s(g86
S'dt'
p6384
tp6385
F0.005364596120795482
s(g50
g52
tp6386
F0.10191282533709627
s(g52
S'under/j'
p6387
tp6388
F1.6772613676389193e-05
s(g1210
S'vb'
p6389
tp6390
F0.040983606557377046
s(g2
S'r//n'
p6391
tp6392
F1.0798669603904798e-05
s(g52
g646
tp6393
F4.193153419097298e-05
s(g994
S'nn'
p6394
tp6395
F0.06896551724137931
s(g906
g83
tp6396
F0.07142857142857142
s(g378
g2
tp6397
F0.12
s(S'pps'
p6398
S'bed'
p6399
tp6400
F0.006204467962214231
s(g107
g15
tp6401
F0.08573717948717949
s(g1173
g40
tp6402
F0.03571428571428571
s(S'nn'
p6403
S'do'
p6404
tp6405
F0.001034340091021928
s(g74
S'ap'
p6406
tp6407
F4.640837825922173e-05
s(g167
S'jj'
p6408
tp6409
F0.002742230347349177
s(g74
S'bem'
p6410
tp6411
F7.734729709870288e-06
s(g86
S'np$'
p6412
tp6413
F0.00013503560029462313
s(g837
g19
tp6414
F0.125
s(g4393
g49
tp6415
F0.04054054054054054
s(g74
g74
tp6416
F0.057035896880583505
s(g5201
S'rb'
p6417
tp6418
F0.002207505518763797
s(g43
S'jj'
p6419
tp6420
F0.0068858839379272495
s(g49
g86
tp6421
F0.03207122831880218
s(g189
S'ab'
p6422
tp6423
F0.002306805074971165
s(g56
g167
tp6424
F0.0011243173787343398
s(g2
S'nns$'
p6425
tp6426
F0.00011878536564295279
s(g40
S'wr'
p6427
tp6428
F0.0017988846914912754
s(g56
S"4''/n"
p6429
tp6430
F0.00024092515258592996
s(g26
g125
tp6431
F6.486346241162354e-05
s(g1513
g19
tp6432
F0.16842105263157894
s(S'vbz'
p6433
S'jj'
p6434
tp6435
F0.03896103896103896
s(g179
S'jj'
p6436
tp6437
F0.003257328990228013
s(g52
S'dod'
p6438
tp6439
F0.00015933982992569733
s(g32
S'md+pps'
p6440
tp6441
F1.8427744812589837e-05
s(g1042
S'jj'
p6442
tp6443
F0.006372549019607843
s(S'wr'
p6444
S'dti'
p6445
tp6446
F5.428586938819825e-05
s(g107
g52
tp6447
F0.08092948717948718
s(g127
g19
tp6448
F0.3333333333333333
s(g43
g223
tp6449
F0.00019959083878049998
s(g2925
S'hv'
p6450
tp6451
F0.010954818427310466
s(g15
g125
tp6452
F4.285017970294113e-05
s(S'hv'
p6453
S'wp'
p6454
tp6455
F0.004101161995898838
s(g86
S'2/c'
p6456
tp6457
F3.682789098944267e-05
s(S'pp'
p6458
S'ap'
p6459
tp6460
F3.224376284712426e-05
s(g223
S'bez'
p6461
tp6462
F0.0019723865877712033
s(S'rb'
p6463
g4
tp6464
F0.00694006309148265
s(g988
S'wd'
p6465
tp6466
F0.0021929824561403508
s(g511
S'wd'
p6467
tp6468
F0.020050125313283207
s(g1195
g19
tp6469
F0.15789473684210525
s(g378
S'pps+m'
p6470
tp6471
F0.02
s(S'wd'
p6472
g223
tp6473
F0.00017295053614666206
s(g1427
S'wr'
p6474
tp6475
F0.003113109650639917
s(S'vbg'
p6476
S'at'
p6477
tp6478
F0.04861111111111111
s(g391
g83
tp6479
F0.08
s(g570
g52
tp6480
F0.08776595744680851
s(S'nn'
p6481
S'hvd'
p6482
tp6483
F6.895600606812854e-05
s(g26
S'pp'
p6484
tp6485
F0.027048063825647013
s(g167
S'wd'
p6486
tp6487
F0.004570383912248629
s(g531
S'ab'
p6488
tp6489
F0.0031485804245154985
s(g1146
S'vbz'
p6490
tp6491
F0.0010395010395010396
s(g2
S'cd'
p6492
tp6493
F0.0007235108634616216
s(g50
g65
tp6494
F0.011132016306052053
s(S'fw'
p6495
g49
tp6496
F0.0021929824561403508
s(g2785
S'ppl'
p6497
tp6498
F0.0004885728244937843
s(g67
g2
tp6499
F0.18497109826589594
s(g345
g50
tp6500
F0.007633587786259542
s(g1615
S'cd'
p6501
tp6502
F0.016891891891891893
s(g531
g74
tp6503
F0.0497258563595896
s(g7
g19
tp6504
F0.3333333333333333
s(g50
S'rb'
p6505
tp6506
F0.0029789902790843524
s(g43
g32
tp6507
F0.0034928396786587496
s(g860
S'nn'
p6508
tp6509
F0.06315789473684211
s(g74
S'vbz'
p6510
tp6511
F1.5469459419740576e-05
s(g3041
S'in'
p6512
tp6513
F0.0989010989010989
s(S'nn'
p6514
g558
tp6515
F0.0007585160667494139
s(g220
S'pps'
p6516
tp6517
F0.025423728813559324
s(g2
g50
tp6518
F0.006198436352641354
s(S'dt+be'
p6519
S'dt+be'
p6520
tp6521
F0.002506265664160401
s(g74
S'hv'
p6522
tp6523
F0.007371197413506385
s(g56
S'nps'
p6524
tp6525
F8.030838419531e-05
s(g1370
g56
tp6526
F0.08139534883720931
s(g385
S'be'
p6527
tp6528
F0.037037037037037035
s(g118
S'cd'
p6529
tp6530
F0.0026954177897574125
s(g4
S'ql'
p6531
tp6532
F0.0022935779816513763
s(g65
S'dt'
p6533
tp6534
F0.010551558752997603
s(g1477
g74
tp6535
F0.06516453233911493
s(S'be'
p6536
S'ppl'
p6537
tp6538
F0.000980392156862745
s(g4331
g56
tp6539
F0.020790410189174
s(g113
g74
tp6540
F0.02702702702702703
s(g1631
S'dts'
p6541
tp6542
F0.01098901098901099
s(g2787
g56
tp6543
F0.15625
s(g2224
S'pps'
p6544
tp6545
F0.006756756756756757
s(g56
S'nr'
p6546
tp6547
F0.00016061676839062
s(g15
S'nn+hv'
p6548
tp6549
F5.356272462867641e-06
s(g50
g167
tp6550
F0.0009407337723424271
s(g756
g40
tp6551
F0.02012072434607646
s(g223
S'pps'
p6552
tp6553
F0.02695595003287311
s(S'nn'
p6554
g86
tp6555
F0.028237484484898635
s(g5015
S'np'
p6556
tp6557
F0.005392156862745098
s(g172
g19
tp6558
F0.15625
s(g74
g86
tp6559
F0.037142172066797124
s(g40
S'at'
p6560
tp6561
F0.0007195538765965102
s(g531
g15
tp6562
F0.09082025948645568
s(g32
S'wp'
p6563
tp6564
F0.0026351675082003463
s(g43
S'ql'
p6565
tp6566
F0.00024948854847562496
s(g38
S'be'
p6567
tp6568
F0.019650655021834062
s(S'np'
p6569
S'vbz'
p6570
tp6571
F0.002016709881878421
s(g52
S'nps'
p6572
tp6573
F7.547676154375137e-05
s(g220
S'np'
p6574
tp6575
F0.007062146892655367
s(S'vbn'
p6576
S'cc'
p6577
tp6578
F0.010135135135135136
s(g1625
g40
tp6579
F0.004629629629629629
s(S'vb'
p6580
S'cd'
p6581
tp6582
F0.00028095148904289194
s(g40
g38
tp6583
F0.0017988846914912754
s(g40
g86
tp6584
F0.03291958985429034
s(g167
g56
tp6585
F0.0283363802559415
s(g83
g50
tp6586
F0.005868544600938967
s(g385
g74
tp6587
F0.07407407407407407
s(S'wr'
p6588
S'bedz'
p6589
tp6590
F0.0001085717387763965
s(g2224
S'wp'
p6591
tp6592
F0.0033783783783783786
s(g15
S'sec/n'
p6593
tp6594
F1.0712544925735283e-05
s(g988
g2
tp6595
F0.10964912280701754
s(g83
S'ben'
p6596
tp6597
F0.0011737089201877935
s(g38
S'md'
p6598
tp6599
F0.0017467248908296944
s(g1625
S'wp'
p6600
tp6601
F0.004629629629629629
s(S'np'
p6602
g26
tp6603
F0.0002881014116969173
s(g2231
g43
tp6604
F0.040584415584415584
s(g56
S'at'
p6605
tp6606
F0.00040154192097654996
s(g26
S'vbz'
p6607
tp6608
F0.00012972692482324707
s(g43
S'bed'
p6609
tp6610
F0.004939873259817374
s(g4337
S'vb'
p6611
tp6612
F0.060674157303370786
s(g2467
S'ppss'
p6613
tp6614
F0.013513513513513514
s(S'pps+be'
p6615
S'ql'
p6616
tp6617
F0.0006341154090044388
s(g2
S'ber'
p6618
tp6619
F3.23960088117144e-05
s(S'wd'
p6620
S'wd'
p6621
tp6622
F0.007436873054306468
s(g2
g74
tp6623
F0.06485680964105223
s(g2
S'do'
p6624
tp6625
F0.001241847004449052
s(g419
g5
tp6626
F0.14285714285714285
s(g56
g2
tp6627
F0.1840668165756505
s(g966
S'vb'
p6628
tp6629
F0.055168040583386174
s(g15
S'dod'
p6630
tp6631
F0.00017675699127463215
s(g74
S'ppss'
p6632
tp6633
F3.8673648549351444e-05
s(g83
g2
tp6634
F0.15610328638497653
s(S'at'
p6635
g119
tp6636
F0.0044444444444444444
s(g40
S'np'
p6637
tp6638
F0.0032379924446842958
s(g388
g50
tp6639
F0.006514657980456026
s(g2559
S'wp'
p6640
tp6641
F0.0016286644951140066
s(g570
g74
tp6642
F0.05585106382978723
s(g2
S'vb'
p6643
tp6644
F0.08524469785322449
s(g107
S'wp'
p6645
tp6646
F0.005608974358974359
s(S'pps+m'
p6647
g67
tp6648
F0.00974025974025974
s(g6125
g38
tp6649
F0.012658227848101266
s(g38
S'ppss+be'
p6650
tp6651
F0.0004366812227074236
s(g3025
g646
tp6652
F0.0011979634621144056
s(g4
g86
tp6653
F0.027522935779816515
s(g988
S'vb'
p6654
tp6655
F0.06798245614035088
s(g3227
g15
tp6656
F0.010416666666666666
s(S'ppss+be'
p6657
S'bed'
p6658
tp6659
F0.0017391304347826088
s(g570
S'vb'
p6660
tp6661
F0.061170212765957445
s(S'wd'
p6662
S'hv'
p6663
tp6664
F0.00588031822898651
s(g640
S'dod'
p6665
tp6666
F0.0016233766233766235
s(g218
g86
tp6667
F0.03278688524590164
s(S'vb'
p6668
S'nps'
p6669
tp6670
F9.365049634763064e-05
s(g223
S'be'
p6671
tp6672
F0.011176857330703484
s(g5167
g19
tp6673
F0.35064935064935066
s(g1204
S'bed'
p6674
tp6675
F0.005047318611987382
s(g2
S'pn'
p6676
tp6677
F0.00010798669603904799
s(g3227
g56
tp6678
F0.003472222222222222
s(g223
S'nns'
p6679
tp6680
F0.0006574621959237344
s(g50
S'at'
p6681
tp6682
F0.0006271558482282847
s(g383
S'pp'
p6683
tp6684
F0.03420523138832998
s(g40
S'pps'
p6685
tp6686
F0.005396654074473826
s(g5234
g52
tp6687
F0.08791208791208792
s(g38
S'pps'
p6688
tp6689
F0.005240174672489083
s(g463
S'jj'
p6690
tp6691
F0.25
s(g570
g15
tp6692
F0.08643617021276596
s(g988
g74
tp6693
F0.07456140350877193
s(S'vb'
p6694
S'nr'
p6695
tp6696
F9.365049634763064e-05
s(S'dt+be'
p6697
g74
tp6698
F0.03759398496240601
s(g756
g67
tp6699
F0.002012072434607646
s(g803
g52
tp6700
F0.09997118985883031
s(g26
S'np$'
p6701
tp6702
F0.00032431731205811765
s(g5843
S'jj'
p6703
tp6704
F0.008032128514056224
s(g1767
g2
tp6705
F0.14285714285714285
s(g56
S'wpo'
p6706
tp6707
F0.00016061676839062
s(g225
S'pps'
p6708
tp6709
F0.02127659574468085
s(g1
g19
tp6710
F0.07167530224525043
s(g6256
S'nns'
p6711
tp6712
F0.025777777777777778
s(g86
S'vbn'
p6713
tp6714
F0.0003682789098944267
s(g56
S'vb'
p6715
tp6716
F0.042563443623514295
s(g457
S'vb'
p6717
tp6718
F0.25
s(g26
S'hvd'
p6719
tp6720
F0.0001945903872348706
s(g378
g4
tp6721
F0.02
s(g24
S'nn'
p6722
tp6723
F0.024096385542168676
s(S'rb'
p6724
S'nns'
p6725
tp6726
F0.004416403785488959
s(S'nns'
p6727
S'vbg'
p6728
tp6729
F0.013513513513513514
s(g74
S'dod'
p6730
tp6731
F0.0002861849992652007
s(g4015
g86
tp6732
F0.008
s(g67
S'be'
p6733
tp6734
F0.007707129094412331
s(g15
S'7/c'
p6735
tp6736
F5.356272462867641e-06
s(g21
g56
tp6737
F0.03508771929824561
s(g179
g74
tp6738
F0.05211726384364821
s(g450
g2
tp6739
F0.19230769230769232
s(S'vb'
p6740
S'hvd'
p6741
tp6742
F4.682524817381532e-05
s(g56
g74
tp6743
F0.07348217153870865
s(g38
S'wd'
p6744
tp6745
F0.004148471615720524
s(g2432
g83
tp6746
F0.014423076923076924
s(g49
S'at'
p6747
tp6748
F0.0004621214455158816
s(g2
g67
tp6749
F0.0025052913481059132
s(S'dt'
p6750
S'fw'
p6751
tp6752
F0.0012953367875647669
s(g2
S"64''/nn"
p6753
tp6754
F1.0798669603904798e-05
s(S'dt+be'
p6755
g15
tp6756
F0.08771929824561403
s(g61
g83
tp6757
F0.004173862982153138
s(g2269
g2
tp6758
F0.078125
s(g2
S'pps+m'
p6759
tp6760
F0.00011878536564295279
s(g790
g49
tp6761
F0.006237006237006237
s(g74
S'nn'
p6762
tp6763
F0.05735302079868819
s(g15
S'wq'
p6764
tp6765
F9.10566318687499e-05
s(g2448
S'rb'
p6766
tp6767
F0.08333333333333333
s(g7
g5
tp6768
F0.3333333333333333
s(g2
S'wq'
p6769
tp6770
F5.3993348019523996e-05
s(g32
S'wrb'
p6771
tp6772
F1.8427744812589837e-05
s(S'fw'
p6773
S'vbg'
p6774
tp6775
F0.0021929824561403508
s(S'dt'
p6776
S'pp$'
p6777
tp6778
F7.196315486470927e-05
s(S'be'
p6779
g52
tp6780
F0.1053921568627451
s(g32
S'wdt+do'
p6781
tp6782
F1.8427744812589837e-05
s(g233
g2
tp6783
F0.11764705882352941
s(g55
g83
tp6784
F0.008820477343479766
s(g1180
S'vb'
p6785
tp6786
F0.017361111111111112
s(g1361
S'pp'
p6787
tp6788
F0.07692307692307693
s(g65
S'rb'
p6789
tp6790
F0.0009592326139088729
s(g192
g86
tp6791
F0.09090909090909091
s(S'cd'
p6792
g558
tp6793
F0.013245033112582781
s(g74
S'np+hv'
p6794
tp6795
F7.734729709870288e-06
s(g3227
g86
tp6796
F0.003472222222222222
s(g1080
S'in'
p6797
tp6798
F0.2
s(S'nn'
p6799
S'md'
p6800
tp6801
F0.0006895600606812854
s(g231
S'be'
p6802
tp6803
F0.03545485991006572
s(g2126
g43
tp6804
F0.0549997984764822
s(g966
g5
tp6805
F0.07926442612555486
s(g2545
g56
tp6806
F0.05179705986473142
s(g2224
S'wr'
p6807
tp6808
F0.0033783783783783786
s(g4331
S'wp'
p6809
tp6810
F0.0037460198539052258
s(g1164
g4
tp6811
F0.003457216940363008
s(g1625
S'np'
p6812
tp6813
F0.013888888888888888
s(S'pps'
p6814
S'to'
p6815
tp6816
F1.863203592256526e-05
s(S'nps'
p6817
g558
tp6818
F0.08571428571428572
s(g2126
S'nn'
p6819
tp6820
F0.049864979243077666
s(g3510
S'do'
p6821
tp6822
F0.001367053998632946
s(g2652
g15
tp6823
F0.10465116279069768
s(g52
S'hv'
p6824
tp6825
F0.006474228879086228
s(g2
S'ppss+m'
p6826
tp6827
F0.00011878536564295279
s(g4
g56
tp6828
F0.052752293577981654
s(g50
S'ab'
p6829
tp6830
F0.0031357792411414237
s(g133
S'cd'
p6831
tp6832
F0.0026595744680851063
s(g74
S'ni'
p6833
tp6834
F0.00018563351303688692
s(g223
g19
tp6835
F0.16436554898093358
s(g40
S'cd'
p6836
tp6837
F0.0003597769382982551
s(g233
g15
tp6838
F0.07497116493656286
s(g58
g49
tp6839
F0.008695652173913044
s(g643
S'vb'
p6840
tp6841
F0.07368421052631578
s(g1617
g40
tp6842
F0.04054054054054054
s(g2112
g19
tp6843
F0.08111702127659574
s(g86
S'ppss+be'
p6844
tp6845
F0.0002332433095998036
s(g18
S'pp'
p6846
tp6847
F0.3333333333333333
s(g1427
g74
tp6848
F0.053268765133171914
s(g2109
g119
tp6849
F0.009771986970684038
s(g49
S'lBOD/n'
p6850
tp6851
F3.080809636772544e-05
s(g238
S'ab'
p6852
tp6853
F0.0029178148808558925
s(g110
g19
tp6854
F0.0710868079289132
s(g86
S'ppss+m'
p6855
tp6856
F0.0002823471642523938
s(g3112
S'md'
p6857
tp6858
F0.0011534025374855825
s(g2046
g2
tp6859
F0.09523809523809523
s(S'pps'
p6860
S'dt+be'
p6861
tp6862
F9.316017961282629e-05
s(g67
S'pps'
p6863
tp6864
F0.046242774566473986
s(g233
S'wr'
p6865
tp6866
F0.0057670126874279125
s(g5798
g32
tp6867
F0.002079002079002079
s(S'in'
p6868
S'cd'
p6869
tp6870
F0.003257328990228013
s(S'pps'
p6871
S'3/n'
p6872
tp6873
F1.863203592256526e-05
s(g1214
S'vb'
p6874
tp6875
F0.07314103764749953
s(g26
g40
tp6876
F0.015113186741908284
s(g775
S'fw'
p6877
tp6878
F0.0026666666666666666
s(g113
S'rb'
p6879
tp6880
F0.013513513513513514
s(g52
S'np+bez'
p6881
tp6882
F8.386306838194597e-06
s(g50
S'pp$'
p6883
tp6884
F0.00031357792411414236
s(g309
g74
tp6885
F0.07061068702290077
s(S'wd'
p6886
S'np'
p6887
tp6888
F0.0038049117952265654
s(g2448
S'at'
p6889
tp6890
F0.041666666666666664
s(g86
S'pps'
p6891
tp6892
F0.011367542352074638
s(g67
g50
tp6893
F0.0038535645472061657
s(g15
S'jjr'
p6894
tp6895
F1.0712544925735283e-05
s(g91
g4
tp6896
F0.0017391304347826088
s(g52
S'cc'
p6897
tp6898
F0.0004612468761007028
s(S'np'
p6899
S'in'
p6900
tp6901
F0.0038893690579083835
s(g1214
g74
tp6902
F0.05937441468439783
s(g3369
S'pps'
p6903
tp6904
F0.006260794473229706
s(g38
g50
tp6905
F0.010262008733624454
s(g80
S'pp'
p6906
tp6907
F0.02459016393442623
s(S'wd'
p6908
g26
tp6909
F0.0012106537530266344
s(g32
S'dt+m'
p6910
tp6911
F1.8427744812589837e-05
s(S'pp'
p6912
S'pps'
p6913
tp6914
F0.005255733344081254
s(g2046
g15
tp6915
F0.09523809523809523
s(g43
S'nps'
p6916
tp6917
F4.9897709695124994e-05
s(S'nn'
p6918
S'2/c'
p6919
tp6920
F3.447800303406427e-05
s(g40
S'nns'
p6921
tp6922
F0.0016189962223421479
s(g223
S'dt+be'
p6923
tp6924
F0.003287310979618672
s(g2003
S'np'
p6925
tp6926
F0.008048289738430584
s(g698
S'be'
p6927
tp6928
F0.029411764705882353
s(g52
S'fw'
p6929
tp6930
F0.0014340584693312759
s(g2785
S'nn'
p6931
tp6932
F0.04788013680039086
s(g1528
g15
tp6933
F0.07633587786259542
s(g894
g26
tp6934
F0.0006851799605013905
s(S'pps'
p6935
S'ppss+h'
p6936
tp6937
F0.0001304242514579568
s(g50
g83
tp6938
F0.00533082470994042
s(g1897
S'ppss+m'
p6939
tp6940
F0.000434286955105586
s(S'ppss+m'
p6941
S'ppss+hv'
p6942
tp6943
F0.0008143322475570033
s(g74
S'hvz'
p6944
tp6945
F3.093891883948115e-05
s(g2578
g1137
tp6946
F6.895600606812854e-05
s(g4872
g32
tp6947
F0.0008695652173913044
s(g67
g52
tp6948
F0.09633911368015415
s(S'wr'
p6949
S'nn$'
p6950
tp6951
F5.428586938819825e-05
s(g6012
g32
tp6952
F0.0016286644951140066
s(g803
g5
tp6953
F0.05473926822241429
s(g56
g4
tp6954
F0.005541278509476389
s(g2448
g49
tp6955
F0.041666666666666664
s(g977
g15
tp6956
F0.05319148936170213
s(g32
S'rp+i'
p6957
tp6958
F3.685548962517967e-05
s(S'pps+be'
p6959
S'wp'
p6960
tp6961
F0.0031705770450221942
s(S'pp'
p6962
S'np'
p6963
tp6964
F0.005368586514046189
s(S'nn'
p6965
S'ppss+h'
p6966
tp6967
F3.447800303406427e-05
s(g52
S'cd'
p6968
tp6969
F0.0010315157410979354
s(S'be'
p6970
S'bedz'
p6971
tp6972
F0.0004901960784313725
s(g223
g65
tp6973
F0.006574621959237344
s(S'vbz'
p6974
S'np'
p6975
tp6976
F0.05194805194805195
s(g32
g65
tp6977
F0.010374820329488077
s(g5823
S'nns'
p6978
tp6979
F0.008274720728175424
s(g52
S'2/c'
p6980
tp6981
F1.6772613676389193e-05
s(S'vbz'
p6982
S'in'
p6983
tp6984
F0.06493506493506493
s(g5753
S'md'
p6985
tp6986
F0.00037460198539052256
s(S'pps'
p6987
S'do'
p6988
tp6989
F0.0025339568854688753
s(g1017
g5
tp6990
F0.07142857142857142
s(g572
S'pp'
p6991
tp6992
F0.2
s(g3669
g2
tp6993
F0.2857142857142857
s(g15
S'abn'
p6994
tp6995
F5.356272462867641e-06
s(S'ab'
p6996
S'16'
p6997
tp6998
F0.00016210082671421625
s(S'nn'
p6999
S'dt'
p7000
tp7001
F0.004378706385326162
s(g2
S'doz'
p7002
tp7003
F9.71880264351432e-05
s(g4110
S'jj'
p7004
tp7005
F0.008988764044943821
s(S'pp'
p7006
S'doz'
p7007
tp7008
F0.00012897505138849703
s(g4
S'pp'
p7009
tp7010
F0.02522935779816514
s(g157
g5
tp7011
F0.033783783783783786
s(g1111
g56
tp7012
F0.0277602523659306
s(g1132
S'rb'
p7013
tp7014
F0.0009726049602852974
s(g52
S'ppo'
p7015
tp7016
F8.386306838194596e-05
s(g223
S'wr'
p7017
tp7018
F0.005917159763313609
s(S'dt'
p7019
g4
tp7020
F0.007700057570523892
s(g365
S'nn'
p7021
tp7022
F0.04938271604938271
s(g83
g15
tp7023
F0.07394366197183098
s(g56
S'np$'
p7024
tp7025
F8.030838419531e-05
s(S'pp'
p7026
S'in'
p7027
tp7028
F0.000741606545483858
s(g6750
g49
tp7029
F0.005397236614853195
s(S'pp'
p7030
S'rb'
p7031
tp7032
F0.001120470758937568
s(g698
S'bed'
p7033
tp7034
F0.014705882352941176
s(g231
S'nn'
p7035
tp7036
F0.05205811138014528
s(S'rb'
p7037
S'md'
p7038
tp7039
F0.0018927444794952682
s(g4509
S'rb'
p7040
tp7041
F0.008032128514056224
s(S'pp'
p7042
S'vbd'
p7043
tp7044
F8.060940711781064e-06
s(g86
S'np'
p7045
tp7046
F0.00597839430395286
s(g1115
g52
tp7047
F0.1101916976968694
s(g1204
g26
tp7048
F0.0006309148264984228
s(g113
S'be'
p7049
tp7050
F0.013513513513513514
s(g425
S'vb'
p7051
tp7052
F0.3333333333333333
s(S'nn'
p7053
S'vbn'
p7054
tp7055
F0.0024134602123844985
s(g533
g2
tp7056
F0.13513513513513514
s(S'ppss+h'
p7057
S'wr'
p7058
tp7059
F0.0014124293785310734
s(S'ppss+m'
p7060
g26
tp7061
F0.0008143322475570033
s(g2126
g40
tp7062
F0.016113820482850347
s(S'ppss+hv'
p7063
S'be'
p7064
tp7065
F0.008032128514056224
s(g2024
g2
tp7066
F0.006514657980456026
s(g83
g67
tp7067
F0.0011737089201877935
s(g32
S'vbn'
p7068
tp7069
F0.00035012715143920687
s(g74
S'pps+m'
p7070
tp7071
F0.0001237556753579246
s(g102
g38
tp7072
F0.020833333333333332
s(g1714
S'wp'
p7073
tp7074
F0.003987255687428966
s(S'dt'
p7075
S'nn$'
p7076
tp7077
F0.0005757052389176742
s(g15
S'pps+hv'
p7078
tp7079
F1.0712544925735283e-05
s(g2707
S'nn'
p7080
tp7081
F0.0694006309148265
s(g428
g50
tp7082
F0.007062146892655367
s(g15
g52
tp7083
F0.11784870672801384
s(g3463
g558
tp7084
F0.2
s(g2224
g40
tp7085
F0.013513513513513514
s(g86
S'nps'
p7086
tp7087
F7.365578197888534e-05
s(g86
S'wpo'
p7088
tp7089
F1.2275963663147557e-05
s(g223
S'dt+m'
p7090
tp7091
F0.0006574621959237344
s(S'pp'
p7092
S'pps+be'
p7093
tp7094
F8.060940711781066e-05
s(S'cd'
p7095
g19
tp7096
F0.17439293598233996
s(g4481
g32
tp7097
F0.011235955056179775
s(S'vb'
p7098
S'vbg'
p7099
tp7100
F0.00028095148904289194
s(g2112
g86
tp7101
F0.05053191489361702
s(g1625
g56
tp7102
F0.009259259259259259
s(g1283
S'at'
p7103
tp7104
F0.20521172638436483
s(g223
g67
tp7105
F0.0046022353714661405
s(g38
S'doz*'
p7106
tp7107
F0.0002183406113537118
s(g6150
S'od'
p7108
tp7109
F7.196315486470927e-05
s(g49
S'nns'
p7110
tp7111
F0.0017252533965926246
s(g282
S'pps+hv'
p7112
tp7113
F0.0006309148264984228
s(g15
S'wql'
p7114
tp7115
F5.356272462867641e-06
s(g5939
S'doz'
p7116
tp7117
F0.0008143322475570033
s(S'nn'
p7118
S'vbg'
p7119
tp7120
F0.001034340091021928
s(g38
g52
tp7121
F0.1091703056768559
s(g43
g67
tp7122
F0.004590589291951499
s(S'vbn'
p7123
g119
tp7124
F0.02027027027027027
s(g1040
S'cs'
p7125
tp7126
F0.02631578947368421
s(g74
S'pps'
p7127
tp7128
F0.014123616450223147
s(g4
g15
tp7129
F0.07339449541284404
s(g74
g52
tp7130
F0.10291831351953407
s(S'hv'
p7131
S'fw'
p7132
tp7133
F0.000683526999316473
s(S'pp'
p7134
S'pps+m'
p7135
tp7136
F5.642658498246745e-05
s(g32
S'vbn+t'
p7137
tp7138
F5.52832344377695e-05
s(S'at'
p7139
S'abn'
p7140
tp7141
F0.0008888888888888889
s(g912
S'dt'
p7142
tp7143
F0.023255813953488372
s(g110
S'pps'
p7144
tp7145
F0.0177717019822283
s(S'pp'
p7146
S'wps'
p7147
tp7148
F1.612188142356213e-05
s(g15
S'9/c'
p7149
tp7150
F5.356272462867641e-06
s(g86
g223
tp7151
F0.00019641541861036092
s(g208
g50
tp7152
F0.014705882352941176
s(g5180
S'md'
p7153
tp7154
F0.006493506493506494
s(S'cd'
p7155
g119
tp7156
F0.002207505518763797
s(g378
g86
tp7157
F0.06
s(S'nns'
p7158
S'nps'
p7159
tp7160
F0.0010395010395010396
s(g86
S'bez'
p7161
tp7162
F8.59317456420329e-05
s(S'pps+hv'
p7163
S'wd'
p7164
tp7165
F0.003816793893129771
s(S'cd'
p7166
S'nps'
p7167
tp7168
F0.002207505518763797
s(g450
S'bed'
p7169
tp7170
F0.038461538461538464
s(g2022
g125
tp7171
F0.00014392630972941855
s(g2
S'od'
p7172
tp7173
F0.000161980044058572
s(g3427
S'vbg'
p7174
tp7175
F0.0001085717387763965
s(g71
S'cs'
p7176
tp7177
F0.021052631578947368
s(g2559
S'nn'
p7178
tp7179
F0.035830618892508145
s(S'pp'
p7180
S'vbz'
p7181
tp7182
F1.612188142356213e-05
s(g86
g19
tp7183
F0.08769948440952614
s(S'pps+m'
p7184
S'pps+be'
p7185
tp7186
F0.00487012987012987
s(S'wd'
p7187
g167
tp7188
F0.0003459010722933241
s(g4445
S'pps+be'
p7189
tp7190
F0.0024429967426710096
s(S'hv'
p7191
S'ppss+be'
p7192
tp7193
F0.000683526999316473
s(g2237
g67
tp7194
F0.0078125
s(S'jj'
p7195
S'pp'
p7196
tp7197
F0.02006588799041629
s(g86
S'pps+bez'
p7198
tp7199
F1.2275963663147557e-05
s(g52
S'ppss+ber'
p7200
tp7201
F8.386306838194597e-06
s(g15
S'bedz'
p7202
tp7203
F5.891899709154405e-05
s(S'dt+be'
p7204
g50
tp7205
F0.002506265664160401
s(g49
S'fw'
p7206
tp7207
F0.0004621214455158816
s(g52
S'pps+be'
p7208
tp7209
F0.00010063568205833515
s(g6453
S'np'
p7210
tp7211
F0.009569377990430622
s(S'nns'
p7212
g40
tp7213
F0.0031185031185031187
s(g4896
S'np$'
p7214
tp7215
F0.0008888888888888889
s(S'ab'
p7216
S"2''/n"
p7217
tp7218
F0.00016210082671421625
s(g1115
g74
tp7219
F0.06461177768583644
s(g26
S'rb'
p7220
tp7221
F0.0005189076992929883
s(g43
g167
tp7222
F0.001347238161768375
s(S'at'
p7223
S'nn$'
p7224
tp7225
F0.0035555555555555557
s(g86
S'do'
p7226
tp7227
F0.001988706113429904
s(S'ppss+m'
p7228
S'wd'
p7229
tp7230
F0.0016286644951140066
s(g663
S'bed'
p7231
tp7232
F0.003930492345883326
s(g262
S'pp'
p7233
tp7234
F0.0259361322742746
s(g371
S'nr'
p7235
tp7236
F0.00016285760816459475
s(g3041
S'nns'
p7237
tp7238
F0.16483516483516483
s(g223
S'np'
p7239
tp7240
F0.007232084155161078
s(g457
g56
tp7241
F0.25
s(g1477
S'do'
p7242
tp7243
F0.0009726049602852974
s(g67
S'jj'
p7244
tp7245
F0.0019267822736030828
s(g86
S'dod'
p7246
tp7247
F0.00027007120058924626
s(g1615
g558
tp7248
F0.0033783783783783786
s(g52
S'pps+m'
p7249
tp7250
F1.6772613676389193e-05
s(g711
g52
tp7251
F0.16666666666666666
s(g1115
S'vb'
p7252
tp7253
F0.06885257205902634
s(S'vb'
p7254
S'ap'
p7255
tp7256
F9.365049634763064e-05
s(g74
g646
tp7257
F5.414310796909202e-05
s(g1375
g83
tp7258
F0.03217391304347826
s(g1839
S'nn'
p7259
tp7260
F0.045588235294117645
s(S'nns'
p7261
S'cs'
p7262
tp7263
F0.0031185031185031187
s(g3919
S'vbn'
p7264
tp7265
F0.0005428586938819825
s(S'pp'
p7266
S'jjs'
p7267
tp7268
F2.4182822135343195e-05
s(g3506
S'vbn'
p7269
tp7270
F0.0008012820512820513
s(g803
g86
tp7271
F0.029818496110630942
s(S'vbd'
p7272
g19
tp7273
F0.3333333333333333
s(g393
g65
tp7274
F0.004807692307692308
s(g223
S'vb'
p7275
tp7276
F0.05456936226166995
s(S'wd'
p7277
S'md'
p7278
tp7279
F0.00017295053614666206
s(g1361
g83
tp7280
F0.054945054945054944
s(g4243
S'nn'
p7281
tp7282
F0.05739514348785872
s(g38
S'rb'
p7283
tp7284
F0.0008733624454148472
s(g663
S'np'
p7285
tp7286
F0.008516066749413874
s(g721
g1137
tp7287
F0.012345679012345678
s(g2046
S'np'
p7288
tp7289
F0.047619047619047616
s(g711
g5
tp7290
F0.16666666666666666
s(g32
S'be'
p7291
tp7292
F0.01453949065713338
s(g125
g15
tp7293
F0.005813953488372093
s(g32
S'rb'
p7294
tp7295
F0.0012715143920686985
s(S'ppss+be'
p7296
g40
tp7297
F0.028695652173913042
s(S'np'
p7298
g558
tp7299
F0.000432152117545376
s(g26
g26
tp7300
F0.0011026788609976
s(g74
S'hvd'
p7301
tp7302
F6.96125673888326e-05
s(S'wrb'
p7303
S'pps'
p7304
tp7305
F0.006756756756756757
s(g40
S'nps'
p7306
tp7307
F0.00017988846914912754
s(g38
S'ab'
p7308
tp7309
F0.0034934497816593887
s(g49
S'wr'
p7310
tp7311
F0.0038818201423334053
s(g56
g3210
tp7312
F0.00024092515258592996
s(g1361
g19
tp7313
F0.17582417582417584
s(g220
g52
tp7314
F0.08615819209039548
s(g15
g15
tp7315
F0.08842670208948189
s(g1663
g38
tp7316
F0.002079002079002079
s(g43
S'dod'
p7317
tp7318
F4.9897709695124994e-05
s(S'wd'
p7319
S'ppl'
p7320
tp7321
F0.00017295053614666206
s(g3153
S'pps+be'
p7322
tp7323
F9.365049634763064e-05
s(g345
S'nn'
p7324
tp7325
F0.022900763358778626
s(g289
S'nn'
p7326
tp7327
F0.09090909090909091
s(g6724
S'vbg'
p7328
tp7329
F0.0006309148264984228
s(g533
g19
tp7330
F0.12162162162162163
s(g1654
S'nn'
p7331
tp7332
F0.04430379746835443
s(g32
S'nn+hv'
p7333
tp7334
F1.8427744812589837e-05
s(g214
S'pp'
p7335
tp7336
F0.039315155358275206
s(S'np'
p7337
S'do'
p7338
tp7339
F0.0005762028233938346
s(g4296
g558
tp7340
F0.11074918566775244
s(S'ppss+be'
p7341
g65
tp7342
F0.0026086956521739132
s(g1587
S'bem'
p7343
tp7344
F0.0001085717387763965
s(g492
g50
tp7345
F0.004415011037527594
s(g1654
S'ppss+m'
p7346
tp7347
F0.006329113924050633
s(S'ppss+be'
p7348
g86
tp7349
F0.06086956521739131
s(g966
g83
tp7350
F0.024096385542168676
s(g86
g125
tp7351
F1.2275963663147557e-05
s(g2014
S'bed'
p7352
tp7353
F0.022988505747126436
s(S'np'
p7354
S'fw'
p7355
tp7356
F0.00216076058772688
s(g38
g15
tp7357
F0.0794759825327511
s(S'nn'
p7358
S'at'
p7359
tp7360
F0.0016549441456350847
s(S'jj'
p7361
S'pp$'
p7362
tp7363
F0.0005989817310572028
s(g3012
S'vb'
p7364
tp7365
F0.08333333333333333
s(g7337
g56
tp7366
F0.01598962834917891
s(g15
S'7074/c'
p7367
tp7368
F5.356272462867641e-06
s(g107
S'be'
p7369
tp7370
F0.008814102564102564
s(g40
S'wp'
p7371
tp7372
F0.003597769382982551
s(S'pp'
p7373
S'fw'
p7374
tp7375
F0.0007174237233485148
s(g167
g26
tp7376
F0.005484460694698354
s(S'pp'
p7377
g223
tp7378
F0.0001854016363709645
s(g74
g19
tp7379
F0.07761027790883848
s(S'pps+be'
p7380
S'hvd'
p7381
tp7382
F0.0006341154090044388
s(S'np'
p7383
g119
tp7384
F0.01181215787957361
s(S'bed'
p7385
g15
tp7386
F0.08314606741573034
s(S'nns'
p7387
S'vbn'
p7388
tp7389
F0.014553014553014554
s(g7377
S'ber'
p7390
tp7391
F8.060940711781064e-06
s(g26
S'be'
p7392
tp7393
F0.03930725822144386
s(g86
S'pps+m'
p7394
tp7395
F0.0001473115639577707
s(g50
S'vb+i'
p7396
tp7397
F0.00015678896205707118
s(g56
g86
tp7398
F0.03557661419852232
s(g52
S'np'
p7399
tp7400
F0.007908287348417503
s(g15
g40
tp7401
F0.01139814780098234
s(g26
S'nn'
p7402
tp7403
F0.06440941817474216
s(g6647
S'ppss+be'
p7404
tp7405
F0.0016233766233766235
s(g2046
g52
tp7406
F0.047619047619047616
s(g86
S'rp+i'
p7407
tp7408
F1.2275963663147557e-05
s(g2826
g38
tp7409
F0.005649717514124294
s(g233
S'bed'
p7410
tp7411
F0.014994232987312572
s(g2224
g67
tp7412
F0.006756756756756757
s(g179
g5
tp7413
F0.08794788273615635
s(g56
S'2'
p7414
tp7415
F8.030838419531e-05
s(S'pp'
p7416
S'dt'
p7417
tp7418
F0.0038208858973842246
s(g43
S'fw'
p7419
tp7420
F0.00149693129085375
s(g110
g2
tp7421
F0.15379357484620643
s(g189
g49
tp7422
F0.010380622837370242
s(S'pp'
p7423
S'wpo'
p7424
tp7425
F8.060940711781064e-06
s(S'ab'
p7426
S'ppl'
p7427
tp7428
F0.0004863024801426487
s(g52
S'ppss+be'
p7429
tp7430
F5.870414786736217e-05
s(g663
S'wd'
p7431
tp7432
F0.0032754102882361054
s(g47
g86
tp7433
F0.021929824561403508
s(S'pp'
p7434
S'/i'
p7435
tp7436
F1.612188142356213e-05
s(g2
S'bem'
p7437
tp7438
F1.0798669603904798e-05
s(g1707
g83
tp7439
F0.0038904198411411897
s(S'wq'
p7440
S'md'
p7441
tp7442
F0.0013297872340425532
s(g3992
g38
tp7443
F0.003804692454026633
s(g7272
S'cd'
p7444
tp7445
F0.1111111111111111
s(g5880
S'wd'
p7446
tp7447
F0.0037854889589905363
s(g267
g40
tp7448
F0.01273747841105354
s(g32
S'wd'
p7449
tp7450
F0.0053440459956510524
s(g4
g65
tp7451
F0.0022935779816513763
s(g52
g32
tp7452
F0.004352493249022996
s(g56
S'jj'
p7453
tp7454
F0.004818503051718599
s(S'do'
p7455
g26
tp7456
F0.0008012820512820513
s(g1631
S'vb'
p7457
tp7458
F0.02197802197802198
s(g40
S'wq'
p7459
tp7460
F0.00017988846914912754
s(g698
g5
tp7461
F0.04411764705882353
s(g32
S'hvz'
p7462
tp7463
F3.685548962517967e-05
s(g1460
g5
tp7464
F0.25
s(g548
S'pps'
p7465
tp7466
F0.023255813953488372
s(g1955
g32
tp7467
F0.005333333333333333
s(g307
S'bed'
p7468
tp7469
F0.04
s(g378
S'ab'
p7470
tp7471
F0.02
s(S'nn'
p7472
S'output/nn'
p7473
tp7474
F3.447800303406427e-05
s(g74
S'vbg'
p7475
tp7476
F0.00010055148622831375
s(S'do'
p7477
S'pp$'
p7478
tp7479
F0.0008012820512820513
s(g1660
S'to'
p7480
tp7481
F0.002207505518763797
s(S'dt+be'
p7482
S'hv'
p7483
tp7484
F0.005012531328320802
s(S'nns'
p7485
S'to'
p7486
tp7487
F0.002079002079002079
s(g4408
g67
tp7488
F0.0031372916276456264
s(g2262
g26
tp7489
F0.0044943820224719105
s(g43
S'pp'
p7490
tp7491
F0.020657651813781746
s(S'wr'
p7492
S'1/c'
p7493
tp7494
F5.428586938819825e-05
s(S'vb'
p7495
S'dt+be'
p7496
tp7497
F4.682524817381532e-05
s(g570
g167
tp7498
F0.0013297872340425532
s(g220
S'vb'
p7499
tp7500
F0.09887005649717515
s(g26
g65
tp7501
F0.011740286696503859
s(g77
g15
tp7502
F0.020833333333333332
s(g3012
S'in'
p7503
tp7504
F0.08333333333333333
s(g56
g558
tp7505
F8.030838419531e-05
s(g572
g19
tp7506
F0.2
s(g86
S'in'
p7507
tp7508
F0.0010557328750306898
s(g1010
S'pp'
p7509
tp7510
F0.06292134831460675
s(g15
S'vb'
p7511
tp7512
F0.07304348757612603
s(S'pps+be'
p7513
S'fw'
p7514
tp7515
F0.0006341154090044388
s(S'pps'
p7516
S'md'
p7517
tp7518
F0.0021985802388627003
s(g61
S'nn'
p7519
tp7520
F0.1008923431203224
s(g49
S'md+h'
p7521
tp7522
F3.080809636772544e-05
s(g5891
g49
tp7523
F0.005012531328320802
s(g32
S'wdt+be'
p7524
tp7525
F0.00038698264106438654
s(S'rb'
p7526
S'ppl'
p7527
tp7528
F0.0006309148264984228
s(g2224
g49
tp7529
F0.0033783783783783786
s(g52
S'ppss+m'
p7530
tp7531
F0.00012579460257291893
s(g4
g646
tp7532
F0.0022935779816513763
s(g1940
S'nps'
p7533
tp7534
F0.02857142857142857
s(g52
S'nn'
p7535
tp7536
F0.07253316784354506
s(g223
g2
tp7537
F0.11045364891518737
s(g4074
S'pps'
p7538
tp7539
F0.015224358974358974
s(g589
g558
tp7540
F0.1368421052631579
s(g15
S'nns'
p7541
tp7542
F0.003074500393686026
s(g15
S'dt+be'
p7543
tp7544
F2.1425089851470566e-05
s(g2137
S'wd'
p7545
tp7546
F0.004807692307692308
s(g6343
g65
tp7547
F0.02925531914893617
s(g2231
g74
tp7548
F0.0633116883116883
s(g398
S'nn'
p7549
tp7550
F0.02702702702702703
s(g2925
g32
tp7551
F0.0042642376365321834
s(g495
g5
tp7552
F0.06870229007633588
s(g3243
g86
tp7553
F0.037037037037037035
s(S'rb'
p7554
S'cc'
p7555
tp7556
F0.0018927444794952682
s(g7272
S'nns'
p7557
tp7558
F0.2222222222222222
s(g189
g67
tp7559
F0.0011534025374855825
s(g1375
S'np'
p7560
tp7561
F0.0052173913043478265
s(g167
S'rb'
p7562
tp7563
F0.0018281535648994515
s(g1398
S'np'
p7564
tp7565
F0.005109383995394358
s(g906
S'vb'
p7566
tp7567
F0.07142857142857142
s(S'pps'
p7568
S'pps+be'
p7569
tp7570
F0.00029811257476104416
s(S'wq'
p7571
S'pps'
p7572
tp7573
F0.013297872340425532
s(g67
S'pp'
p7574
tp7575
F0.04238921001926782
s(g267
g15
tp7576
F0.08412492803684514
s(g3112
g38
tp7577
F0.0011534025374855825
s(g292
g83
tp7578
F0.011494252873563218
s(g1204
g49
tp7579
F0.00946372239747634
s(g167
g65
tp7580
F0.013711151736745886
s(g49
S'dt'
p7581
tp7582
F0.003666163467759327
s(g309
S'do'
p7583
tp7584
F0.0019083969465648854
s(g74
S'nn+be'
p7585
tp7586
F7.734729709870288e-06
s(g15
S'cc'
p7587
tp7588
F0.0003535139825492643
s(g26
S'cd'
p7589
tp7590
F0.0007134980865278589
s(g1850
S'vb'
p7591
tp7592
F0.08571428571428572
s(g86
S'uh'
p7593
tp7594
F1.2275963663147557e-05
s(S'at'
p7595
S'vbz'
p7596
tp7597
F0.005333333333333333
s(g3427
S'wdt'
p7598
tp7599
F0.000217143477552793
s(g1615
S'in'
p7600
tp7601
F0.0472972972972973
s(g146
g65
tp7602
F0.005012531328320802
s(g2787
g83
tp7603
F0.109375
s(S'nn'
p7604
S'od'
p7605
tp7606
F0.0004137360364087712
s(g1714
S'pps+m'
p7607
tp7608
F0.0001304242514579568
s(g2973
S'dod'
p7609
tp7610
F0.0006341154090044388
s(g167
S'bed'
p7611
tp7612
F0.008226691042047532
s(S'nn'
p7613
S'c/np'
p7614
tp7615
F6.895600606812854e-05
s(g74
g32
tp7616
F0.003929242692614107
s(g83
S'ab'
p7617
tp7618
F0.004694835680751174
s(g1474
S'jj'
p7619
tp7620
F0.00730473871511519
s(g307
S'pp'
p7621
tp7622
F0.04
s(g3432
g26
tp7623
F0.00819672131147541
s(g2
S'pps'
p7624
tp7625
F0.0036175543173081076
s(g67
g86
tp7626
F0.05394990366088632
s(g26
g83
tp7627
F0.0038269442822857886
s(g309
S'np'
p7628
tp7629
F0.0057251908396946565
s(S'wr'
p7630
S'nps$'
p7631
tp7632
F5.428586938819825e-05
s(g2
S'l//n'
p7633
tp7634
F1.0798669603904798e-05
s(g56
g67
tp7635
F0.0016061676839061998
s(g43
g646
tp7636
F4.9897709695124994e-05
s(g648
S'wd'
p7637
tp7638
F0.003989361702127659
s(g50
S'dt'
p7639
tp7640
F0.0061147695202257765
s(g570
S'nn'
p7641
tp7642
F0.0625
s(g47
g43
tp7643
F0.04824561403508772
s(g223
S'wdt+be'
p7644
tp7645
F0.0006574621959237344
s(S'wdt'
p7646
S'bez'
p7647
tp7648
F0.010526315789473684
s.